{
  global:
    /* libc++abi exports */
    _Unwind_DeleteException;
    _Unwind_RaiseException;
    _Unwind_Resume;
    _Unwind_Complete;
    _Unwind_VRS_Get;
    _Unwind_VRS_Pop;
    _Unwind_VRS_Set;
    _ZNKSt10bad_typeid4whatEv;
    _ZNKSt11logic_error4whatEv;
    _ZNKSt13bad_exception4whatEv;
    _ZNKSt13runtime_error4whatEv;
    _ZNKSt20bad_array_new_length4whatEv;
    _ZNKSt8bad_cast4whatEv;
    _ZNKSt9bad_alloc4whatEv;
    _ZNKSt9exception4whatEv;
    _ZNSt10bad_typeidC1Ev;
    _ZNSt10bad_typeidC2Ev;
    _ZNSt10bad_typeidD0Ev;
    _ZNSt10bad_typeidD1Ev;
    _ZNSt10bad_typeidD2Ev;
    _ZNSt11logic_errorD0Ev;
    _ZNSt11logic_errorD1Ev;
    _ZNSt11logic_errorD2Ev;
    _ZNSt11range_errorD0Ev;
    _ZNSt11range_errorD1Ev;
    _ZNSt11range_errorD2Ev;
    _ZNSt12domain_errorD0Ev;
    _ZNSt12domain_errorD1Ev;
    _ZNSt12domain_errorD2Ev;
    _ZNSt12length_errorD0Ev;
    _ZNSt12length_errorD1Ev;
    _ZNSt12length_errorD2Ev;
    _ZNSt12out_of_rangeD0Ev;
    _ZNSt12out_of_rangeD1Ev;
    _ZNSt12out_of_rangeD2Ev;
    _ZNSt13bad_exceptionC2ERKS_;
    _ZNSt13bad_exceptionD0Ev;
    _ZNSt13bad_exceptionD1Ev;
    _ZNSt13bad_exceptionD2Ev;
    _ZNSt13runtime_errorD0Ev;
    _ZNSt13runtime_errorD1Ev;
    _ZNSt13runtime_errorD2Ev;
    _ZNSt14overflow_errorD0Ev;
    _ZNSt14overflow_errorD1Ev;
    _ZNSt14overflow_errorD2Ev;
    _ZNSt15underflow_errorD0Ev;
    _ZNSt15underflow_errorD1Ev;
    _ZNSt15underflow_errorD2Ev;
    _ZNSt16invalid_argumentD0Ev;
    _ZNSt16invalid_argumentD1Ev;
    _ZNSt16invalid_argumentD2Ev;
    _ZNSt20bad_array_new_lengthC1Ev;
    _ZNSt20bad_array_new_lengthC2Ev;
    _ZNSt20bad_array_new_lengthD0Ev;
    _ZNSt20bad_array_new_lengthD1Ev;
    _ZNSt20bad_array_new_lengthD2Ev;
    _ZNSt8bad_castC1Ev;
    _ZNSt8bad_castC2Ev;
    _ZNSt8bad_castD0Ev;
    _ZNSt8bad_castD1Ev;
    _ZNSt8bad_castD2Ev;
    _ZNSt9bad_allocC1Ev;
    _ZNSt9bad_allocC2Ev;
    _ZNSt9bad_allocD0Ev;
    _ZNSt9bad_allocD1Ev;
    _ZNSt9bad_allocD2Ev;
    _ZNSt9exceptionC2ERKS_;
    _ZNSt9exceptionD0Ev;
    _ZNSt9exceptionD1Ev;
    _ZNSt9exceptionD2Ev;
    _ZNSt9type_infoD0Ev;
    _ZNSt9type_infoD1Ev;
    _ZNSt9type_infoD2Ev;
    _ZSt10unexpectedv;
    _ZSt13get_terminatev;
    _ZSt13set_terminatePFvvE;
    _ZSt14get_unexpectedv;
    _ZSt14set_unexpectedPFvvE;
    _ZSt15get_new_handlerv;
    _ZSt15set_new_handlerPFvvE;
    _ZSt9terminatev;
    _ZTIDi;
    _ZTIDn;
    _ZTIDs;
    _ZTIN10__cxxabiv116__enum_type_infoE;
    _ZTIN10__cxxabiv117__array_type_infoE;
    _ZTIN10__cxxabiv117__class_type_infoE;
    _ZTIN10__cxxabiv117__pbase_type_infoE;
    _ZTIN10__cxxabiv119__pointer_type_infoE;
    _ZTIN10__cxxabiv120__function_type_infoE;
    _ZTIN10__cxxabiv120__si_class_type_infoE;
    _ZTIN10__cxxabiv121__vmi_class_type_infoE;
    _ZTIN10__cxxabiv123__fundamental_type_infoE;
    _ZTIN10__cxxabiv129__pointer_to_member_type_infoE;
    _ZTIPDi;
    _ZTIPDn;
    _ZTIPDs;
    _ZTIPKDi;
    _ZTIPKDn;
    _ZTIPKDs;
    _ZTIPKa;
    _ZTIPKb;
    _ZTIPKc;
    _ZTIPKd;
    _ZTIPKe;
    _ZTIPKf;
    _ZTIPKh;
    _ZTIPKi;
    _ZTIPKj;
    _ZTIPKl;
    _ZTIPKm;
    _ZTIPKs;
    _ZTIPKt;
    _ZTIPKv;
    _ZTIPKw;
    _ZTIPKx;
    _ZTIPKy;
    _ZTIPa;
    _ZTIPb;
    _ZTIPc;
    _ZTIPd;
    _ZTIPe;
    _ZTIPf;
    _ZTIPh;
    _ZTIPi;
    _ZTIPj;
    _ZTIPl;
    _ZTIPm;
    _ZTIPs;
    _ZTIPt;
    _ZTIPv;
    _ZTIPw;
    _ZTIPx;
    _ZTIPy;
    _ZTISt10bad_typeid;
    _ZTISt11logic_error;
    _ZTISt11range_error;
    _ZTISt12domain_error;
    _ZTISt12length_error;
    _ZTISt12out_of_range;
    _ZTISt13bad_exception;
    _ZTISt13runtime_error;
    _ZTISt14overflow_error;
    _ZTISt15underflow_error;
    _ZTISt16invalid_argument;
    _ZTISt20bad_array_new_length;
    _ZTISt8bad_cast;
    _ZTISt9bad_alloc;
    _ZTISt9exception;
    _ZTISt9type_info;
    _ZTIa;
    _ZTIb;
    _ZTIc;
    _ZTId;
    _ZTIe;
    _ZTIf;
    _ZTIh;
    _ZTIi;
    _ZTIj;
    _ZTIl;
    _ZTIm;
    _ZTIs;
    _ZTIt;
    _ZTIv;
    _ZTIw;
    _ZTIx;
    _ZTIy;
    _ZTSDi;
    _ZTSDn;
    _ZTSDs;
    _ZTSN10__cxxabiv116__enum_type_infoE;
    _ZTSN10__cxxabiv117__array_type_infoE;
    _ZTSN10__cxxabiv117__class_type_infoE;
    _ZTSN10__cxxabiv117__pbase_type_infoE;
    _ZTSN10__cxxabiv119__pointer_type_infoE;
    _ZTSN10__cxxabiv120__function_type_infoE;
    _ZTSN10__cxxabiv120__si_class_type_infoE;
    _ZTSN10__cxxabiv121__vmi_class_type_infoE;
    _ZTSN10__cxxabiv123__fundamental_type_infoE;
    _ZTSN10__cxxabiv129__pointer_to_member_type_infoE;
    _ZTSPDi;
    _ZTSPDn;
    _ZTSPDs;
    _ZTSPKDi;
    _ZTSPKDn;
    _ZTSPKDs;
    _ZTSPKa;
    _ZTSPKb;
    _ZTSPKc;
    _ZTSPKd;
    _ZTSPKe;
    _ZTSPKf;
    _ZTSPKh;
    _ZTSPKi;
    _ZTSPKj;
    _ZTSPKl;
    _ZTSPKm;
    _ZTSPKs;
    _ZTSPKt;
    _ZTSPKv;
    _ZTSPKw;
    _ZTSPKx;
    _ZTSPKy;
    _ZTSPa;
    _ZTSPb;
    _ZTSPc;
    _ZTSPd;
    _ZTSPe;
    _ZTSPf;
    _ZTSPh;
    _ZTSPi;
    _ZTSPj;
    _ZTSPl;
    _ZTSPm;
    _ZTSPs;
    _ZTSPt;
    _ZTSPv;
    _ZTSPw;
    _ZTSPx;
    _ZTSPy;
    _ZTSSt10bad_typeid;
    _ZTSSt11logic_error;
    _ZTSSt11range_error;
    _ZTSSt12domain_error;
    _ZTSSt12length_error;
    _ZTSSt12out_of_range;
    _ZTSSt13bad_exception;
    _ZTSSt13runtime_error;
    _ZTSSt14overflow_error;
    _ZTSSt15underflow_error;
    _ZTSSt16invalid_argument;
    _ZTSSt20bad_array_new_length;
    _ZTSSt8bad_cast;
    _ZTSSt9bad_alloc;
    _ZTSSt9exception;
    _ZTSSt9type_info;
    _ZTSa;
    _ZTSb;
    _ZTSc;
    _ZTSd;
    _ZTSe;
    _ZTSf;
    _ZTSh;
    _ZTSi;
    _ZTSj;
    _ZTSl;
    _ZTSm;
    _ZTSs;
    _ZTSt;
    _ZTSv;
    _ZTSw;
    _ZTSx;
    _ZTSy;
    _ZTVN10__cxxabiv116__enum_type_infoE;
    _ZTVN10__cxxabiv117__array_type_infoE;
    _ZTVN10__cxxabiv117__class_type_infoE;
    _ZTVN10__cxxabiv117__pbase_type_infoE;
    _ZTVN10__cxxabiv119__pointer_type_infoE;
    _ZTVN10__cxxabiv120__function_type_infoE;
    _ZTVN10__cxxabiv120__si_class_type_infoE;
    _ZTVN10__cxxabiv121__vmi_class_type_infoE;
    _ZTVN10__cxxabiv123__fundamental_type_infoE;
    _ZTVN10__cxxabiv129__pointer_to_member_type_infoE;
    _ZTVSt10bad_typeid;
    _ZTVSt11logic_error;
    _ZTVSt11range_error;
    _ZTVSt12domain_error;
    _ZTVSt12length_error;
    _ZTVSt12out_of_range;
    _ZTVSt13bad_exception;
    _ZTVSt13runtime_error;
    _ZTVSt14overflow_error;
    _ZTVSt15underflow_error;
    _ZTVSt16invalid_argument;
    _ZTVSt20bad_array_new_length;
    _ZTVSt8bad_cast;
    _ZTVSt9bad_alloc;
    _ZTVSt9exception;
    _ZTVSt9type_info;
    _ZdaPv;
    _ZdaPvRKSt9nothrow_t;
    _ZdlPv;
    _ZdlPvRKSt9nothrow_t;
    _Znaj;
    _ZnajRKSt9nothrow_t;
    _Znwj;
    _ZnwjRKSt9nothrow_t;
    __aeabi_unwind_cpp_pr0;
    __aeabi_unwind_cpp_pr1;
    __aeabi_unwind_cpp_pr2;
    __cxa_allocate_dependent_exception;
    __cxa_allocate_exception;
    __cxa_bad_cast;
    __cxa_bad_typeid;
    __cxa_begin_catch;
    __cxa_begin_cleanup;
    __cxa_call_unexpected;
    __cxa_current_exception_type;
    __cxa_current_primary_exception;
    __cxa_decrement_exception_refcount;
    __cxa_deleted_virtual;
    __cxa_demangle;
    __cxa_end_catch;
    __cxa_end_cleanup;
    __cxa_free_dependent_exception;
    __cxa_free_exception;
    __cxa_get_exception_ptr;
    __cxa_get_globals;
    __cxa_get_globals_fast;
    __cxa_guard_abort;
    __cxa_guard_acquire;
    __cxa_guard_release;
    __cxa_increment_exception_refcount;
    __cxa_pure_virtual;
    __cxa_rethrow;
    __cxa_rethrow_primary_exception;
    __cxa_terminate_handler;
    __cxa_throw;
    __cxa_uncaught_exception;
    __cxa_unexpected_handler;
    __cxa_vec_cctor;
    __cxa_vec_cleanup;
    __cxa_vec_ctor;
    __cxa_vec_delete;
    __cxa_vec_delete2;
    __cxa_vec_delete3;
    __cxa_vec_dtor;
    __cxa_vec_new;
    __cxa_vec_new2;
    __cxa_vec_new3;
    __dynamic_cast;
    __gxx_personality_v0;

    /* libc++ exports */
    _ZGVZNKSt3__120__time_get_c_storageIcE3__cEvE1s;
    _ZGVZNKSt3__120__time_get_c_storageIcE3__rEvE1s;
    _ZGVZNKSt3__120__time_get_c_storageIcE3__xEvE1s;
    _ZGVZNKSt3__120__time_get_c_storageIcE3__XEvE1s;
    _ZGVZNKSt3__120__time_get_c_storageIcE7__am_pmEvE5am_pm;
    _ZGVZNKSt3__120__time_get_c_storageIcE7__weeksEvE5weeks;
    _ZGVZNKSt3__120__time_get_c_storageIcE8__monthsEvE6months;
    _ZGVZNKSt3__120__time_get_c_storageIwE3__cEvE1s;
    _ZGVZNKSt3__120__time_get_c_storageIwE3__rEvE1s;
    _ZGVZNKSt3__120__time_get_c_storageIwE3__xEvE1s;
    _ZGVZNKSt3__120__time_get_c_storageIwE3__XEvE1s;
    _ZGVZNKSt3__120__time_get_c_storageIwE7__am_pmEvE5am_pm;
    _ZGVZNKSt3__120__time_get_c_storageIwE7__weeksEvE5weeks;
    _ZGVZNKSt3__120__time_get_c_storageIwE8__monthsEvE6months;
    _ZNKSt16nested_exception14rethrow_nestedEv;
    _ZNKSt3__110error_code7messageEv;
    _ZNKSt3__110moneypunctIcLb0EE11do_groupingEv;
    _ZNKSt3__110moneypunctIcLb0EE13do_neg_formatEv;
    _ZNKSt3__110moneypunctIcLb0EE13do_pos_formatEv;
    _ZNKSt3__110moneypunctIcLb0EE14do_curr_symbolEv;
    _ZNKSt3__110moneypunctIcLb0EE14do_frac_digitsEv;
    _ZNKSt3__110moneypunctIcLb0EE16do_decimal_pointEv;
    _ZNKSt3__110moneypunctIcLb0EE16do_negative_signEv;
    _ZNKSt3__110moneypunctIcLb0EE16do_positive_signEv;
    _ZNKSt3__110moneypunctIcLb0EE16do_thousands_sepEv;
    _ZNKSt3__110moneypunctIcLb1EE11do_groupingEv;
    _ZNKSt3__110moneypunctIcLb1EE13do_neg_formatEv;
    _ZNKSt3__110moneypunctIcLb1EE13do_pos_formatEv;
    _ZNKSt3__110moneypunctIcLb1EE14do_curr_symbolEv;
    _ZNKSt3__110moneypunctIcLb1EE14do_frac_digitsEv;
    _ZNKSt3__110moneypunctIcLb1EE16do_decimal_pointEv;
    _ZNKSt3__110moneypunctIcLb1EE16do_negative_signEv;
    _ZNKSt3__110moneypunctIcLb1EE16do_positive_signEv;
    _ZNKSt3__110moneypunctIcLb1EE16do_thousands_sepEv;
    _ZNKSt3__110moneypunctIwLb0EE11do_groupingEv;
    _ZNKSt3__110moneypunctIwLb0EE13do_neg_formatEv;
    _ZNKSt3__110moneypunctIwLb0EE13do_pos_formatEv;
    _ZNKSt3__110moneypunctIwLb0EE14do_curr_symbolEv;
    _ZNKSt3__110moneypunctIwLb0EE14do_frac_digitsEv;
    _ZNKSt3__110moneypunctIwLb0EE16do_decimal_pointEv;
    _ZNKSt3__110moneypunctIwLb0EE16do_negative_signEv;
    _ZNKSt3__110moneypunctIwLb0EE16do_positive_signEv;
    _ZNKSt3__110moneypunctIwLb0EE16do_thousands_sepEv;
    _ZNKSt3__110moneypunctIwLb1EE11do_groupingEv;
    _ZNKSt3__110moneypunctIwLb1EE13do_neg_formatEv;
    _ZNKSt3__110moneypunctIwLb1EE13do_pos_formatEv;
    _ZNKSt3__110moneypunctIwLb1EE14do_curr_symbolEv;
    _ZNKSt3__110moneypunctIwLb1EE14do_frac_digitsEv;
    _ZNKSt3__110moneypunctIwLb1EE16do_decimal_pointEv;
    _ZNKSt3__110moneypunctIwLb1EE16do_negative_signEv;
    _ZNKSt3__110moneypunctIwLb1EE16do_positive_signEv;
    _ZNKSt3__110moneypunctIwLb1EE16do_thousands_sepEv;
    _ZNKSt3__110__time_put8__do_putEPcRS1_PK2tmcc;
    _ZNKSt3__110__time_put8__do_putEPwRS1_PK2tmcc;
    _ZNKSt3__111__libcpp_db15__decrementableEPKv;
    _ZNKSt3__111__libcpp_db15__find_c_from_iEPv;
    _ZNKSt3__111__libcpp_db15__subscriptableEPKvi;
    _ZNKSt3__111__libcpp_db17__dereferenceableEPKv;
    _ZNKSt3__111__libcpp_db17__find_c_and_lockEPv;
    _ZNKSt3__111__libcpp_db22__less_than_comparableEPKvS2_;
    _ZNKSt3__111__libcpp_db6unlockEv;
    _ZNKSt3__111__libcpp_db8__find_cEPv;
    _ZNKSt3__111__libcpp_db9__addableEPKvi;
    _ZNKSt3__112bad_weak_ptr4whatEv;
    _ZNKSt3__112basic_stringIcNS_11char_traitsIcEENS_9allocatorIcEEE12find_last_ofEPKcjj;
    _ZNKSt3__112basic_stringIcNS_11char_traitsIcEENS_9allocatorIcEEE13find_first_ofEPKcjj;
    _ZNKSt3__112basic_stringIcNS_11char_traitsIcEENS_9allocatorIcEEE16find_last_not_ofEPKcjj;
    _ZNKSt3__112basic_stringIcNS_11char_traitsIcEENS_9allocatorIcEEE17find_first_not_ofEPKcjj;
    _ZNKSt3__112basic_stringIcNS_11char_traitsIcEENS_9allocatorIcEEE2atEj;
    _ZNKSt3__112basic_stringIcNS_11char_traitsIcEENS_9allocatorIcEEE4copyEPcjj;
    _ZNKSt3__112basic_stringIcNS_11char_traitsIcEENS_9allocatorIcEEE4findEcj;
    _ZNKSt3__112basic_stringIcNS_11char_traitsIcEENS_9allocatorIcEEE4findEPKcjj;
    _ZNKSt3__112basic_stringIcNS_11char_traitsIcEENS_9allocatorIcEEE5rfindEcj;
    _ZNKSt3__112basic_stringIcNS_11char_traitsIcEENS_9allocatorIcEEE5rfindEPKcjj;
    _ZNKSt3__112basic_stringIcNS_11char_traitsIcEENS_9allocatorIcEEE7compareEjjPKc;
    _ZNKSt3__112basic_stringIcNS_11char_traitsIcEENS_9allocatorIcEEE7compareEjjPKcj;
    _ZNKSt3__112basic_stringIcNS_11char_traitsIcEENS_9allocatorIcEEE7compareEjjRKS5_jj;
    _ZNKSt3__112basic_stringIcNS_11char_traitsIcEENS_9allocatorIcEEE7compareEPKc;
    _ZNKSt3__112basic_stringIwNS_11char_traitsIwEENS_9allocatorIwEEE12find_last_ofEPKwjj;
    _ZNKSt3__112basic_stringIwNS_11char_traitsIwEENS_9allocatorIwEEE13find_first_ofEPKwjj;
    _ZNKSt3__112basic_stringIwNS_11char_traitsIwEENS_9allocatorIwEEE16find_last_not_ofEPKwjj;
    _ZNKSt3__112basic_stringIwNS_11char_traitsIwEENS_9allocatorIwEEE17find_first_not_ofEPKwjj;
    _ZNKSt3__112basic_stringIwNS_11char_traitsIwEENS_9allocatorIwEEE2atEj;
    _ZNKSt3__112basic_stringIwNS_11char_traitsIwEENS_9allocatorIwEEE4copyEPwjj;
    _ZNKSt3__112basic_stringIwNS_11char_traitsIwEENS_9allocatorIwEEE4findEPKwjj;
    _ZNKSt3__112basic_stringIwNS_11char_traitsIwEENS_9allocatorIwEEE4findEwj;
    _ZNKSt3__112basic_stringIwNS_11char_traitsIwEENS_9allocatorIwEEE5rfindEPKwjj;
    _ZNKSt3__112basic_stringIwNS_11char_traitsIwEENS_9allocatorIwEEE5rfindEwj;
    _ZNKSt3__112basic_stringIwNS_11char_traitsIwEENS_9allocatorIwEEE7compareEjjPKw;
    _ZNKSt3__112basic_stringIwNS_11char_traitsIwEENS_9allocatorIwEEE7compareEjjPKwj;
    _ZNKSt3__112basic_stringIwNS_11char_traitsIwEENS_9allocatorIwEEE7compareEjjRKS5_jj;
    _ZNKSt3__112basic_stringIwNS_11char_traitsIwEENS_9allocatorIwEEE7compareEPKw;
    _ZNKSt3__112ctype_bynameIcE10do_tolowerEc;
    _ZNKSt3__112ctype_bynameIcE10do_tolowerEPcPKc;
    _ZNKSt3__112ctype_bynameIcE10do_toupperEc;
    _ZNKSt3__112ctype_bynameIcE10do_toupperEPcPKc;
    _ZNKSt3__112ctype_bynameIwE10do_scan_isEtPKwS3_;
    _ZNKSt3__112ctype_bynameIwE10do_tolowerEPwPKw;
    _ZNKSt3__112ctype_bynameIwE10do_tolowerEw;
    _ZNKSt3__112ctype_bynameIwE10do_toupperEPwPKw;
    _ZNKSt3__112ctype_bynameIwE10do_toupperEw;
    _ZNKSt3__112ctype_bynameIwE11do_scan_notEtPKwS3_;
    _ZNKSt3__112ctype_bynameIwE5do_isEPKwS3_Pt;
    _ZNKSt3__112ctype_bynameIwE5do_isEtw;
    _ZNKSt3__112ctype_bynameIwE8do_widenEc;
    _ZNKSt3__112ctype_bynameIwE8do_widenEPKcS3_Pw;
    _ZNKSt3__112ctype_bynameIwE9do_narrowEPKwS3_cPc;
    _ZNKSt3__112ctype_bynameIwE9do_narrowEwc;
    _ZNKSt3__112strstreambuf6pcountEv;
    _ZNKSt3__113random_device7entropyEv;
    _ZNKSt3__114__codecvt_utf8IDiE10do_unshiftER9mbstate_tPcS4_RS4_;
    _ZNKSt3__114__codecvt_utf8IDiE11do_encodingEv;
    _ZNKSt3__114__codecvt_utf8IDiE13do_max_lengthEv;
    _ZNKSt3__114__codecvt_utf8IDiE16do_always_noconvEv;
    _ZNKSt3__114__codecvt_utf8IDiE5do_inER9mbstate_tPKcS5_RS5_PDiS7_RS7_;
    _ZNKSt3__114__codecvt_utf8IDiE6do_outER9mbstate_tPKDiS5_RS5_PcS7_RS7_;
    _ZNKSt3__114__codecvt_utf8IDiE9do_lengthER9mbstate_tPKcS5_j;
    _ZNKSt3__114__codecvt_utf8IDsE10do_unshiftER9mbstate_tPcS4_RS4_;
    _ZNKSt3__114__codecvt_utf8IDsE11do_encodingEv;
    _ZNKSt3__114__codecvt_utf8IDsE13do_max_lengthEv;
    _ZNKSt3__114__codecvt_utf8IDsE16do_always_noconvEv;
    _ZNKSt3__114__codecvt_utf8IDsE5do_inER9mbstate_tPKcS5_RS5_PDsS7_RS7_;
    _ZNKSt3__114__codecvt_utf8IDsE6do_outER9mbstate_tPKDsS5_RS5_PcS7_RS7_;
    _ZNKSt3__114__codecvt_utf8IDsE9do_lengthER9mbstate_tPKcS5_j;
    _ZNKSt3__114__codecvt_utf8IwE10do_unshiftER9mbstate_tPcS4_RS4_;
    _ZNKSt3__114__codecvt_utf8IwE11do_encodingEv;
    _ZNKSt3__114__codecvt_utf8IwE13do_max_lengthEv;
    _ZNKSt3__114__codecvt_utf8IwE16do_always_noconvEv;
    _ZNKSt3__114__codecvt_utf8IwE5do_inER9mbstate_tPKcS5_RS5_PwS7_RS7_;
    _ZNKSt3__114__codecvt_utf8IwE6do_outER9mbstate_tPKwS5_RS5_PcS7_RS7_;
    _ZNKSt3__114__codecvt_utf8IwE9do_lengthER9mbstate_tPKcS5_j;
    _ZNKSt3__114collate_bynameIcE10do_compareEPKcS3_S3_S3_;
    _ZNKSt3__114collate_bynameIcE12do_transformEPKcS3_;
    _ZNKSt3__114collate_bynameIwE10do_compareEPKwS3_S3_S3_;
    _ZNKSt3__114collate_bynameIwE12do_transformEPKwS3_;
    _ZNKSt3__114error_category10equivalentEiRKNS_15error_conditionE;
    _ZNKSt3__114error_category10equivalentERKNS_10error_codeEi;
    _ZNKSt3__114error_category23default_error_conditionEi;
    _ZNKSt3__115basic_streambufIcNS_11char_traitsIcEEE6getlocEv;
    _ZNKSt3__115basic_streambufIwNS_11char_traitsIwEEE6getlocEv;
    _ZNKSt3__115__codecvt_utf16IDiLb0EE10do_unshiftER9mbstate_tPcS4_RS4_;
    _ZNKSt3__115__codecvt_utf16IDiLb0EE11do_encodingEv;
    _ZNKSt3__115__codecvt_utf16IDiLb0EE13do_max_lengthEv;
    _ZNKSt3__115__codecvt_utf16IDiLb0EE16do_always_noconvEv;
    _ZNKSt3__115__codecvt_utf16IDiLb0EE5do_inER9mbstate_tPKcS5_RS5_PDiS7_RS7_;
    _ZNKSt3__115__codecvt_utf16IDiLb0EE6do_outER9mbstate_tPKDiS5_RS5_PcS7_RS7_;
    _ZNKSt3__115__codecvt_utf16IDiLb0EE9do_lengthER9mbstate_tPKcS5_j;
    _ZNKSt3__115__codecvt_utf16IDiLb1EE10do_unshiftER9mbstate_tPcS4_RS4_;
    _ZNKSt3__115__codecvt_utf16IDiLb1EE11do_encodingEv;
    _ZNKSt3__115__codecvt_utf16IDiLb1EE13do_max_lengthEv;
    _ZNKSt3__115__codecvt_utf16IDiLb1EE16do_always_noconvEv;
    _ZNKSt3__115__codecvt_utf16IDiLb1EE5do_inER9mbstate_tPKcS5_RS5_PDiS7_RS7_;
    _ZNKSt3__115__codecvt_utf16IDiLb1EE6do_outER9mbstate_tPKDiS5_RS5_PcS7_RS7_;
    _ZNKSt3__115__codecvt_utf16IDiLb1EE9do_lengthER9mbstate_tPKcS5_j;
    _ZNKSt3__115__codecvt_utf16IDsLb0EE10do_unshiftER9mbstate_tPcS4_RS4_;
    _ZNKSt3__115__codecvt_utf16IDsLb0EE11do_encodingEv;
    _ZNKSt3__115__codecvt_utf16IDsLb0EE13do_max_lengthEv;
    _ZNKSt3__115__codecvt_utf16IDsLb0EE16do_always_noconvEv;
    _ZNKSt3__115__codecvt_utf16IDsLb0EE5do_inER9mbstate_tPKcS5_RS5_PDsS7_RS7_;
    _ZNKSt3__115__codecvt_utf16IDsLb0EE6do_outER9mbstate_tPKDsS5_RS5_PcS7_RS7_;
    _ZNKSt3__115__codecvt_utf16IDsLb0EE9do_lengthER9mbstate_tPKcS5_j;
    _ZNKSt3__115__codecvt_utf16IDsLb1EE10do_unshiftER9mbstate_tPcS4_RS4_;
    _ZNKSt3__115__codecvt_utf16IDsLb1EE11do_encodingEv;
    _ZNKSt3__115__codecvt_utf16IDsLb1EE13do_max_lengthEv;
    _ZNKSt3__115__codecvt_utf16IDsLb1EE16do_always_noconvEv;
    _ZNKSt3__115__codecvt_utf16IDsLb1EE5do_inER9mbstate_tPKcS5_RS5_PDsS7_RS7_;
    _ZNKSt3__115__codecvt_utf16IDsLb1EE6do_outER9mbstate_tPKDsS5_RS5_PcS7_RS7_;
    _ZNKSt3__115__codecvt_utf16IDsLb1EE9do_lengthER9mbstate_tPKcS5_j;
    _ZNKSt3__115__codecvt_utf16IwLb0EE10do_unshiftER9mbstate_tPcS4_RS4_;
    _ZNKSt3__115__codecvt_utf16IwLb0EE11do_encodingEv;
    _ZNKSt3__115__codecvt_utf16IwLb0EE13do_max_lengthEv;
    _ZNKSt3__115__codecvt_utf16IwLb0EE16do_always_noconvEv;
    _ZNKSt3__115__codecvt_utf16IwLb0EE5do_inER9mbstate_tPKcS5_RS5_PwS7_RS7_;
    _ZNKSt3__115__codecvt_utf16IwLb0EE6do_outER9mbstate_tPKwS5_RS5_PcS7_RS7_;
    _ZNKSt3__115__codecvt_utf16IwLb0EE9do_lengthER9mbstate_tPKcS5_j;
    _ZNKSt3__115__codecvt_utf16IwLb1EE10do_unshiftER9mbstate_tPcS4_RS4_;
    _ZNKSt3__115__codecvt_utf16IwLb1EE11do_encodingEv;
    _ZNKSt3__115__codecvt_utf16IwLb1EE13do_max_lengthEv;
    _ZNKSt3__115__codecvt_utf16IwLb1EE16do_always_noconvEv;
    _ZNKSt3__115__codecvt_utf16IwLb1EE5do_inER9mbstate_tPKcS5_RS5_PwS7_RS7_;
    _ZNKSt3__115__codecvt_utf16IwLb1EE6do_outER9mbstate_tPKwS5_RS5_PcS7_RS7_;
    _ZNKSt3__115__codecvt_utf16IwLb1EE9do_lengthER9mbstate_tPKcS5_j;
    _ZNKSt3__115error_condition7messageEv;
    _ZNKSt3__117moneypunct_bynameIcLb0EE11do_groupingEv;
    _ZNKSt3__117moneypunct_bynameIcLb0EE13do_neg_formatEv;
    _ZNKSt3__117moneypunct_bynameIcLb0EE13do_pos_formatEv;
    _ZNKSt3__117moneypunct_bynameIcLb0EE14do_curr_symbolEv;
    _ZNKSt3__117moneypunct_bynameIcLb0EE14do_frac_digitsEv;
    _ZNKSt3__117moneypunct_bynameIcLb0EE16do_decimal_pointEv;
    _ZNKSt3__117moneypunct_bynameIcLb0EE16do_negative_signEv;
    _ZNKSt3__117moneypunct_bynameIcLb0EE16do_positive_signEv;
    _ZNKSt3__117moneypunct_bynameIcLb0EE16do_thousands_sepEv;
    _ZNKSt3__117moneypunct_bynameIcLb1EE11do_groupingEv;
    _ZNKSt3__117moneypunct_bynameIcLb1EE13do_neg_formatEv;
    _ZNKSt3__117moneypunct_bynameIcLb1EE13do_pos_formatEv;
    _ZNKSt3__117moneypunct_bynameIcLb1EE14do_curr_symbolEv;
    _ZNKSt3__117moneypunct_bynameIcLb1EE14do_frac_digitsEv;
    _ZNKSt3__117moneypunct_bynameIcLb1EE16do_decimal_pointEv;
    _ZNKSt3__117moneypunct_bynameIcLb1EE16do_negative_signEv;
    _ZNKSt3__117moneypunct_bynameIcLb1EE16do_positive_signEv;
    _ZNKSt3__117moneypunct_bynameIcLb1EE16do_thousands_sepEv;
    _ZNKSt3__117moneypunct_bynameIwLb0EE11do_groupingEv;
    _ZNKSt3__117moneypunct_bynameIwLb0EE13do_neg_formatEv;
    _ZNKSt3__117moneypunct_bynameIwLb0EE13do_pos_formatEv;
    _ZNKSt3__117moneypunct_bynameIwLb0EE14do_curr_symbolEv;
    _ZNKSt3__117moneypunct_bynameIwLb0EE14do_frac_digitsEv;
    _ZNKSt3__117moneypunct_bynameIwLb0EE16do_decimal_pointEv;
    _ZNKSt3__117moneypunct_bynameIwLb0EE16do_negative_signEv;
    _ZNKSt3__117moneypunct_bynameIwLb0EE16do_positive_signEv;
    _ZNKSt3__117moneypunct_bynameIwLb0EE16do_thousands_sepEv;
    _ZNKSt3__117moneypunct_bynameIwLb1EE11do_groupingEv;
    _ZNKSt3__117moneypunct_bynameIwLb1EE13do_neg_formatEv;
    _ZNKSt3__117moneypunct_bynameIwLb1EE13do_pos_formatEv;
    _ZNKSt3__117moneypunct_bynameIwLb1EE14do_curr_symbolEv;
    _ZNKSt3__117moneypunct_bynameIwLb1EE14do_frac_digitsEv;
    _ZNKSt3__117moneypunct_bynameIwLb1EE16do_decimal_pointEv;
    _ZNKSt3__117moneypunct_bynameIwLb1EE16do_negative_signEv;
    _ZNKSt3__117moneypunct_bynameIwLb1EE16do_positive_signEv;
    _ZNKSt3__117moneypunct_bynameIwLb1EE16do_thousands_sepEv;
    _ZNKSt3__118__time_get_storageIcE15__do_date_orderEv;
    _ZNKSt3__118__time_get_storageIwE15__do_date_orderEv;
    _ZNKSt3__119__shared_weak_count13__get_deleterERKSt9type_info;
    _ZNKSt3__120__codecvt_utf8_utf16IDiE10do_unshiftER9mbstate_tPcS4_RS4_;
    _ZNKSt3__120__codecvt_utf8_utf16IDiE11do_encodingEv;
    _ZNKSt3__120__codecvt_utf8_utf16IDiE13do_max_lengthEv;
    _ZNKSt3__120__codecvt_utf8_utf16IDiE16do_always_noconvEv;
    _ZNKSt3__120__codecvt_utf8_utf16IDiE5do_inER9mbstate_tPKcS5_RS5_PDiS7_RS7_;
    _ZNKSt3__120__codecvt_utf8_utf16IDiE6do_outER9mbstate_tPKDiS5_RS5_PcS7_RS7_;
    _ZNKSt3__120__codecvt_utf8_utf16IDiE9do_lengthER9mbstate_tPKcS5_j;
    _ZNKSt3__120__codecvt_utf8_utf16IDsE10do_unshiftER9mbstate_tPcS4_RS4_;
    _ZNKSt3__120__codecvt_utf8_utf16IDsE11do_encodingEv;
    _ZNKSt3__120__codecvt_utf8_utf16IDsE13do_max_lengthEv;
    _ZNKSt3__120__codecvt_utf8_utf16IDsE16do_always_noconvEv;
    _ZNKSt3__120__codecvt_utf8_utf16IDsE5do_inER9mbstate_tPKcS5_RS5_PDsS7_RS7_;
    _ZNKSt3__120__codecvt_utf8_utf16IDsE6do_outER9mbstate_tPKDsS5_RS5_PcS7_RS7_;
    _ZNKSt3__120__codecvt_utf8_utf16IDsE9do_lengthER9mbstate_tPKcS5_j;
    _ZNKSt3__120__codecvt_utf8_utf16IwE10do_unshiftER9mbstate_tPcS4_RS4_;
    _ZNKSt3__120__codecvt_utf8_utf16IwE11do_encodingEv;
    _ZNKSt3__120__codecvt_utf8_utf16IwE13do_max_lengthEv;
    _ZNKSt3__120__codecvt_utf8_utf16IwE16do_always_noconvEv;
    _ZNKSt3__120__codecvt_utf8_utf16IwE5do_inER9mbstate_tPKcS5_RS5_PwS7_RS7_;
    _ZNKSt3__120__codecvt_utf8_utf16IwE6do_outER9mbstate_tPKwS5_RS5_PcS7_RS7_;
    _ZNKSt3__120__codecvt_utf8_utf16IwE9do_lengthER9mbstate_tPKcS5_j;
    _ZNKSt3__120__time_get_c_storageIcE3__cEv;
    _ZNKSt3__120__time_get_c_storageIcE3__rEv;
    _ZNKSt3__120__time_get_c_storageIcE3__xEv;
    _ZNKSt3__120__time_get_c_storageIcE3__XEv;
    _ZNKSt3__120__time_get_c_storageIcE7__am_pmEv;
    _ZNKSt3__120__time_get_c_storageIcE7__weeksEv;
    _ZNKSt3__120__time_get_c_storageIcE8__monthsEv;
    _ZNKSt3__120__time_get_c_storageIwE3__cEv;
    _ZNKSt3__120__time_get_c_storageIwE3__rEv;
    _ZNKSt3__120__time_get_c_storageIwE3__xEv;
    _ZNKSt3__120__time_get_c_storageIwE3__XEv;
    _ZNKSt3__120__time_get_c_storageIwE7__am_pmEv;
    _ZNKSt3__120__time_get_c_storageIwE7__weeksEv;
    _ZNKSt3__120__time_get_c_storageIwE8__monthsEv;
    _ZNKSt3__120__vector_base_commonILb1EE20__throw_length_errorEv;
    _ZNKSt3__120__vector_base_commonILb1EE20__throw_out_of_rangeEv;
    _ZNKSt3__121__basic_string_commonILb1EE20__throw_length_errorEv;
    _ZNKSt3__121__basic_string_commonILb1EE20__throw_out_of_rangeEv;
    _ZNKSt3__123__match_any_but_newlineIcE6__execERNS_7__stateIcEE;
    _ZNKSt3__123__match_any_but_newlineIwE6__execERNS_7__stateIwEE;
    _ZNKSt3__15ctypeIcE10do_tolowerEc;
    _ZNKSt3__15ctypeIcE10do_tolowerEPcPKc;
    _ZNKSt3__15ctypeIcE10do_toupperEc;
    _ZNKSt3__15ctypeIcE10do_toupperEPcPKc;
    _ZNKSt3__15ctypeIcE8do_widenEc;
    _ZNKSt3__15ctypeIcE8do_widenEPKcS3_Pc;
    _ZNKSt3__15ctypeIcE9do_narrowEcc;
    _ZNKSt3__15ctypeIcE9do_narrowEPKcS3_cPc;
    _ZNKSt3__15ctypeIwE10do_scan_isEtPKwS3_;
    _ZNKSt3__15ctypeIwE10do_tolowerEPwPKw;
    _ZNKSt3__15ctypeIwE10do_tolowerEw;
    _ZNKSt3__15ctypeIwE10do_toupperEPwPKw;
    _ZNKSt3__15ctypeIwE10do_toupperEw;
    _ZNKSt3__15ctypeIwE11do_scan_notEtPKwS3_;
    _ZNKSt3__15ctypeIwE5do_isEPKwS3_Pt;
    _ZNKSt3__15ctypeIwE5do_isEtw;
    _ZNKSt3__15ctypeIwE8do_widenEc;
    _ZNKSt3__15ctypeIwE8do_widenEPKcS3_Pw;
    _ZNKSt3__15ctypeIwE9do_narrowEPKwS3_cPc;
    _ZNKSt3__15ctypeIwE9do_narrowEwc;
    _ZNKSt3__16locale4nameEv;
    _ZNKSt3__16locale9has_facetERNS0_2idE;
    _ZNKSt3__16locale9use_facetERNS0_2idE;
    _ZNKSt3__16localeeqERKS0_;
    _ZNKSt3__17codecvtIcc9mbstate_tE10do_unshiftERS1_PcS4_RS4_;
    _ZNKSt3__17codecvtIcc9mbstate_tE11do_encodingEv;
    _ZNKSt3__17codecvtIcc9mbstate_tE13do_max_lengthEv;
    _ZNKSt3__17codecvtIcc9mbstate_tE16do_always_noconvEv;
    _ZNKSt3__17codecvtIcc9mbstate_tE5do_inERS1_PKcS5_RS5_PcS7_RS7_;
    _ZNKSt3__17codecvtIcc9mbstate_tE6do_outERS1_PKcS5_RS5_PcS7_RS7_;
    _ZNKSt3__17codecvtIcc9mbstate_tE9do_lengthERS1_PKcS5_j;
    _ZNKSt3__17codecvtIDic9mbstate_tE10do_unshiftERS1_PcS4_RS4_;
    _ZNKSt3__17codecvtIDic9mbstate_tE11do_encodingEv;
    _ZNKSt3__17codecvtIDic9mbstate_tE13do_max_lengthEv;
    _ZNKSt3__17codecvtIDic9mbstate_tE16do_always_noconvEv;
    _ZNKSt3__17codecvtIDic9mbstate_tE5do_inERS1_PKcS5_RS5_PDiS7_RS7_;
    _ZNKSt3__17codecvtIDic9mbstate_tE6do_outERS1_PKDiS5_RS5_PcS7_RS7_;
    _ZNKSt3__17codecvtIDic9mbstate_tE9do_lengthERS1_PKcS5_j;
    _ZNKSt3__17codecvtIDsc9mbstate_tE10do_unshiftERS1_PcS4_RS4_;
    _ZNKSt3__17codecvtIDsc9mbstate_tE11do_encodingEv;
    _ZNKSt3__17codecvtIDsc9mbstate_tE13do_max_lengthEv;
    _ZNKSt3__17codecvtIDsc9mbstate_tE16do_always_noconvEv;
    _ZNKSt3__17codecvtIDsc9mbstate_tE5do_inERS1_PKcS5_RS5_PDsS7_RS7_;
    _ZNKSt3__17codecvtIDsc9mbstate_tE6do_outERS1_PKDsS5_RS5_PcS7_RS7_;
    _ZNKSt3__17codecvtIDsc9mbstate_tE9do_lengthERS1_PKcS5_j;
    _ZNKSt3__17codecvtIwc9mbstate_tE10do_unshiftERS1_PcS4_RS4_;
    _ZNKSt3__17codecvtIwc9mbstate_tE11do_encodingEv;
    _ZNKSt3__17codecvtIwc9mbstate_tE13do_max_lengthEv;
    _ZNKSt3__17codecvtIwc9mbstate_tE16do_always_noconvEv;
    _ZNKSt3__17codecvtIwc9mbstate_tE5do_inERS1_PKcS5_RS5_PwS7_RS7_;
    _ZNKSt3__17codecvtIwc9mbstate_tE6do_outERS1_PKwS5_RS5_PcS7_RS7_;
    _ZNKSt3__17codecvtIwc9mbstate_tE9do_lengthERS1_PKcS5_j;
    _ZNKSt3__17collateIcE10do_compareEPKcS3_S3_S3_;
    _ZNKSt3__17collateIcE12do_transformEPKcS3_;
    _ZNKSt3__17collateIcE7do_hashEPKcS3_;
    _ZNKSt3__17collateIwE10do_compareEPKwS3_S3_S3_;
    _ZNKSt3__17collateIwE12do_transformEPKwS3_;
    _ZNKSt3__17collateIwE7do_hashEPKwS3_;
    _ZNKSt3__17num_getIcNS_19istreambuf_iteratorIcNS_11char_traitsIcEEEEE15__do_get_signedIlEES4_S4_S4_RNS_8ios_baseERjRT_;
    _ZNKSt3__17num_getIcNS_19istreambuf_iteratorIcNS_11char_traitsIcEEEEE15__do_get_signedIxEES4_S4_S4_RNS_8ios_baseERjRT_;
    _ZNKSt3__17num_getIcNS_19istreambuf_iteratorIcNS_11char_traitsIcEEEEE17__do_get_unsignedIjEES4_S4_S4_RNS_8ios_baseERjRT_;
    _ZNKSt3__17num_getIcNS_19istreambuf_iteratorIcNS_11char_traitsIcEEEEE17__do_get_unsignedImEES4_S4_S4_RNS_8ios_baseERjRT_;
    _ZNKSt3__17num_getIcNS_19istreambuf_iteratorIcNS_11char_traitsIcEEEEE17__do_get_unsignedItEES4_S4_S4_RNS_8ios_baseERjRT_;
    _ZNKSt3__17num_getIcNS_19istreambuf_iteratorIcNS_11char_traitsIcEEEEE17__do_get_unsignedIyEES4_S4_S4_RNS_8ios_baseERjRT_;
    _ZNKSt3__17num_getIcNS_19istreambuf_iteratorIcNS_11char_traitsIcEEEEE23__do_get_floating_pointIdEES4_S4_S4_RNS_8ios_baseERjRT_;
    _ZNKSt3__17num_getIcNS_19istreambuf_iteratorIcNS_11char_traitsIcEEEEE23__do_get_floating_pointIeEES4_S4_S4_RNS_8ios_baseERjRT_;
    _ZNKSt3__17num_getIcNS_19istreambuf_iteratorIcNS_11char_traitsIcEEEEE23__do_get_floating_pointIfEES4_S4_S4_RNS_8ios_baseERjRT_;
    _ZNKSt3__17num_getIcNS_19istreambuf_iteratorIcNS_11char_traitsIcEEEEE6do_getES4_S4_RNS_8ios_baseERjRb;
    _ZNKSt3__17num_getIcNS_19istreambuf_iteratorIcNS_11char_traitsIcEEEEE6do_getES4_S4_RNS_8ios_baseERjRd;
    _ZNKSt3__17num_getIcNS_19istreambuf_iteratorIcNS_11char_traitsIcEEEEE6do_getES4_S4_RNS_8ios_baseERjRe;
    _ZNKSt3__17num_getIcNS_19istreambuf_iteratorIcNS_11char_traitsIcEEEEE6do_getES4_S4_RNS_8ios_baseERjRf;
    _ZNKSt3__17num_getIcNS_19istreambuf_iteratorIcNS_11char_traitsIcEEEEE6do_getES4_S4_RNS_8ios_baseERjRl;
    _ZNKSt3__17num_getIcNS_19istreambuf_iteratorIcNS_11char_traitsIcEEEEE6do_getES4_S4_RNS_8ios_baseERjRm;
    _ZNKSt3__17num_getIcNS_19istreambuf_iteratorIcNS_11char_traitsIcEEEEE6do_getES4_S4_RNS_8ios_baseERjRPv;
    _ZNKSt3__17num_getIcNS_19istreambuf_iteratorIcNS_11char_traitsIcEEEEE6do_getES4_S4_RNS_8ios_baseERjRt;
    _ZNKSt3__17num_getIcNS_19istreambuf_iteratorIcNS_11char_traitsIcEEEEE6do_getES4_S4_RNS_8ios_baseERjRx;
    _ZNKSt3__17num_getIcNS_19istreambuf_iteratorIcNS_11char_traitsIcEEEEE6do_getES4_S4_RNS_8ios_baseERjRy;
    _ZNKSt3__17num_getIcNS_19istreambuf_iteratorIcNS_11char_traitsIcEEEEE6do_getES4_S4_RNS_8ios_baseERjS8_;
    _ZNKSt3__17num_getIwNS_19istreambuf_iteratorIwNS_11char_traitsIwEEEEE15__do_get_signedIlEES4_S4_S4_RNS_8ios_baseERjRT_;
    _ZNKSt3__17num_getIwNS_19istreambuf_iteratorIwNS_11char_traitsIwEEEEE15__do_get_signedIxEES4_S4_S4_RNS_8ios_baseERjRT_;
    _ZNKSt3__17num_getIwNS_19istreambuf_iteratorIwNS_11char_traitsIwEEEEE17__do_get_unsignedIjEES4_S4_S4_RNS_8ios_baseERjRT_;
    _ZNKSt3__17num_getIwNS_19istreambuf_iteratorIwNS_11char_traitsIwEEEEE17__do_get_unsignedImEES4_S4_S4_RNS_8ios_baseERjRT_;
    _ZNKSt3__17num_getIwNS_19istreambuf_iteratorIwNS_11char_traitsIwEEEEE17__do_get_unsignedItEES4_S4_S4_RNS_8ios_baseERjRT_;
    _ZNKSt3__17num_getIwNS_19istreambuf_iteratorIwNS_11char_traitsIwEEEEE17__do_get_unsignedIyEES4_S4_S4_RNS_8ios_baseERjRT_;
    _ZNKSt3__17num_getIwNS_19istreambuf_iteratorIwNS_11char_traitsIwEEEEE23__do_get_floating_pointIdEES4_S4_S4_RNS_8ios_baseERjRT_;
    _ZNKSt3__17num_getIwNS_19istreambuf_iteratorIwNS_11char_traitsIwEEEEE23__do_get_floating_pointIeEES4_S4_S4_RNS_8ios_baseERjRT_;
    _ZNKSt3__17num_getIwNS_19istreambuf_iteratorIwNS_11char_traitsIwEEEEE23__do_get_floating_pointIfEES4_S4_S4_RNS_8ios_baseERjRT_;
    _ZNKSt3__17num_getIwNS_19istreambuf_iteratorIwNS_11char_traitsIwEEEEE6do_getES4_S4_RNS_8ios_baseERjRb;
    _ZNKSt3__17num_getIwNS_19istreambuf_iteratorIwNS_11char_traitsIwEEEEE6do_getES4_S4_RNS_8ios_baseERjRd;
    _ZNKSt3__17num_getIwNS_19istreambuf_iteratorIwNS_11char_traitsIwEEEEE6do_getES4_S4_RNS_8ios_baseERjRe;
    _ZNKSt3__17num_getIwNS_19istreambuf_iteratorIwNS_11char_traitsIwEEEEE6do_getES4_S4_RNS_8ios_baseERjRf;
    _ZNKSt3__17num_getIwNS_19istreambuf_iteratorIwNS_11char_traitsIwEEEEE6do_getES4_S4_RNS_8ios_baseERjRl;
    _ZNKSt3__17num_getIwNS_19istreambuf_iteratorIwNS_11char_traitsIwEEEEE6do_getES4_S4_RNS_8ios_baseERjRm;
    _ZNKSt3__17num_getIwNS_19istreambuf_iteratorIwNS_11char_traitsIwEEEEE6do_getES4_S4_RNS_8ios_baseERjRPv;
    _ZNKSt3__17num_getIwNS_19istreambuf_iteratorIwNS_11char_traitsIwEEEEE6do_getES4_S4_RNS_8ios_baseERjRt;
    _ZNKSt3__17num_getIwNS_19istreambuf_iteratorIwNS_11char_traitsIwEEEEE6do_getES4_S4_RNS_8ios_baseERjRx;
    _ZNKSt3__17num_getIwNS_19istreambuf_iteratorIwNS_11char_traitsIwEEEEE6do_getES4_S4_RNS_8ios_baseERjRy;
    _ZNKSt3__17num_getIwNS_19istreambuf_iteratorIwNS_11char_traitsIwEEEEE6do_getES4_S4_RNS_8ios_baseERjS8_;
    _ZNKSt3__17num_putIcNS_19ostreambuf_iteratorIcNS_11char_traitsIcEEEEE6do_putES4_RNS_8ios_baseEcb;
    _ZNKSt3__17num_putIcNS_19ostreambuf_iteratorIcNS_11char_traitsIcEEEEE6do_putES4_RNS_8ios_baseEcd;
    _ZNKSt3__17num_putIcNS_19ostreambuf_iteratorIcNS_11char_traitsIcEEEEE6do_putES4_RNS_8ios_baseEce;
    _ZNKSt3__17num_putIcNS_19ostreambuf_iteratorIcNS_11char_traitsIcEEEEE6do_putES4_RNS_8ios_baseEcl;
    _ZNKSt3__17num_putIcNS_19ostreambuf_iteratorIcNS_11char_traitsIcEEEEE6do_putES4_RNS_8ios_baseEcm;
    _ZNKSt3__17num_putIcNS_19ostreambuf_iteratorIcNS_11char_traitsIcEEEEE6do_putES4_RNS_8ios_baseEcPKv;
    _ZNKSt3__17num_putIcNS_19ostreambuf_iteratorIcNS_11char_traitsIcEEEEE6do_putES4_RNS_8ios_baseEcx;
    _ZNKSt3__17num_putIcNS_19ostreambuf_iteratorIcNS_11char_traitsIcEEEEE6do_putES4_RNS_8ios_baseEcy;
    _ZNKSt3__17num_putIwNS_19ostreambuf_iteratorIwNS_11char_traitsIwEEEEE6do_putES4_RNS_8ios_baseEwb;
    _ZNKSt3__17num_putIwNS_19ostreambuf_iteratorIwNS_11char_traitsIwEEEEE6do_putES4_RNS_8ios_baseEwd;
    _ZNKSt3__17num_putIwNS_19ostreambuf_iteratorIwNS_11char_traitsIwEEEEE6do_putES4_RNS_8ios_baseEwe;
    _ZNKSt3__17num_putIwNS_19ostreambuf_iteratorIwNS_11char_traitsIwEEEEE6do_putES4_RNS_8ios_baseEwl;
    _ZNKSt3__17num_putIwNS_19ostreambuf_iteratorIwNS_11char_traitsIwEEEEE6do_putES4_RNS_8ios_baseEwm;
    _ZNKSt3__17num_putIwNS_19ostreambuf_iteratorIwNS_11char_traitsIwEEEEE6do_putES4_RNS_8ios_baseEwPKv;
    _ZNKSt3__17num_putIwNS_19ostreambuf_iteratorIwNS_11char_traitsIwEEEEE6do_putES4_RNS_8ios_baseEwx;
    _ZNKSt3__17num_putIwNS_19ostreambuf_iteratorIwNS_11char_traitsIwEEEEE6do_putES4_RNS_8ios_baseEwy;
    _ZNKSt3__18ios_base6getlocEv;
    _ZNKSt3__18messagesIcE6do_getEiiiRKNS_12basic_stringIcNS_11char_traitsIcEENS_9allocatorIcEEEE;
    _ZNKSt3__18messagesIcE7do_openERKNS_12basic_stringIcNS_11char_traitsIcEENS_9allocatorIcEEEERKNS_6localeE;
    _ZNKSt3__18messagesIcE8do_closeEi;
    _ZNKSt3__18messagesIwE6do_getEiiiRKNS_12basic_stringIwNS_11char_traitsIwEENS_9allocatorIwEEEE;
    _ZNKSt3__18messagesIwE7do_openERKNS_12basic_stringIcNS_11char_traitsIcEENS_9allocatorIcEEEERKNS_6localeE;
    _ZNKSt3__18messagesIwE8do_closeEi;
    _ZNKSt3__18numpunctIcE11do_groupingEv;
    _ZNKSt3__18numpunctIcE11do_truenameEv;
    _ZNKSt3__18numpunctIcE12do_falsenameEv;
    _ZNKSt3__18numpunctIcE16do_decimal_pointEv;
    _ZNKSt3__18numpunctIcE16do_thousands_sepEv;
    _ZNKSt3__18numpunctIwE11do_groupingEv;
    _ZNKSt3__18numpunctIwE11do_truenameEv;
    _ZNKSt3__18numpunctIwE12do_falsenameEv;
    _ZNKSt3__18numpunctIwE16do_decimal_pointEv;
    _ZNKSt3__18numpunctIwE16do_thousands_sepEv;
    _ZNKSt3__18time_getIcNS_19istreambuf_iteratorIcNS_11char_traitsIcEEEEE10__get_hourERiRS4_S4_RjRKNS_5ctypeIcEE;
    _ZNKSt3__18time_getIcNS_19istreambuf_iteratorIcNS_11char_traitsIcEEEEE10__get_yearERiRS4_S4_RjRKNS_5ctypeIcEE;
    _ZNKSt3__18time_getIcNS_19istreambuf_iteratorIcNS_11char_traitsIcEEEEE11do_get_dateES4_S4_RNS_8ios_baseERjP2tm;
    _ZNKSt3__18time_getIcNS_19istreambuf_iteratorIcNS_11char_traitsIcEEEEE11do_get_timeES4_S4_RNS_8ios_baseERjP2tm;
    _ZNKSt3__18time_getIcNS_19istreambuf_iteratorIcNS_11char_traitsIcEEEEE11do_get_yearES4_S4_RNS_8ios_baseERjP2tm;
    _ZNKSt3__18time_getIcNS_19istreambuf_iteratorIcNS_11char_traitsIcEEEEE11__get_am_pmERiRS4_S4_RjRKNS_5ctypeIcEE;
    _ZNKSt3__18time_getIcNS_19istreambuf_iteratorIcNS_11char_traitsIcEEEEE11__get_monthERiRS4_S4_RjRKNS_5ctypeIcEE;
    _ZNKSt3__18time_getIcNS_19istreambuf_iteratorIcNS_11char_traitsIcEEEEE11__get_year4ERiRS4_S4_RjRKNS_5ctypeIcEE;
    _ZNKSt3__18time_getIcNS_19istreambuf_iteratorIcNS_11char_traitsIcEEEEE12__get_minuteERiRS4_S4_RjRKNS_5ctypeIcEE;
    _ZNKSt3__18time_getIcNS_19istreambuf_iteratorIcNS_11char_traitsIcEEEEE12__get_secondERiRS4_S4_RjRKNS_5ctypeIcEE;
    _ZNKSt3__18time_getIcNS_19istreambuf_iteratorIcNS_11char_traitsIcEEEEE13do_date_orderEv;
    _ZNKSt3__18time_getIcNS_19istreambuf_iteratorIcNS_11char_traitsIcEEEEE13__get_12_hourERiRS4_S4_RjRKNS_5ctypeIcEE;
    _ZNKSt3__18time_getIcNS_19istreambuf_iteratorIcNS_11char_traitsIcEEEEE13__get_percentERS4_S4_RjRKNS_5ctypeIcEE;
    _ZNKSt3__18time_getIcNS_19istreambuf_iteratorIcNS_11char_traitsIcEEEEE13__get_weekdayERiRS4_S4_RjRKNS_5ctypeIcEE;
    _ZNKSt3__18time_getIcNS_19istreambuf_iteratorIcNS_11char_traitsIcEEEEE14do_get_weekdayES4_S4_RNS_8ios_baseERjP2tm;
    _ZNKSt3__18time_getIcNS_19istreambuf_iteratorIcNS_11char_traitsIcEEEEE15__get_monthnameERiRS4_S4_RjRKNS_5ctypeIcEE;
    _ZNKSt3__18time_getIcNS_19istreambuf_iteratorIcNS_11char_traitsIcEEEEE16do_get_monthnameES4_S4_RNS_8ios_baseERjP2tm;
    _ZNKSt3__18time_getIcNS_19istreambuf_iteratorIcNS_11char_traitsIcEEEEE17__get_weekdaynameERiRS4_S4_RjRKNS_5ctypeIcEE;
    _ZNKSt3__18time_getIcNS_19istreambuf_iteratorIcNS_11char_traitsIcEEEEE17__get_white_spaceERS4_S4_RjRKNS_5ctypeIcEE;
    _ZNKSt3__18time_getIcNS_19istreambuf_iteratorIcNS_11char_traitsIcEEEEE18__get_day_year_numERiRS4_S4_RjRKNS_5ctypeIcEE;
    _ZNKSt3__18time_getIcNS_19istreambuf_iteratorIcNS_11char_traitsIcEEEEE3getES4_S4_RNS_8ios_baseERjP2tmPKcSC_;
    _ZNKSt3__18time_getIcNS_19istreambuf_iteratorIcNS_11char_traitsIcEEEEE6do_getES4_S4_RNS_8ios_baseERjP2tmcc;
    _ZNKSt3__18time_getIcNS_19istreambuf_iteratorIcNS_11char_traitsIcEEEEE9__get_dayERiRS4_S4_RjRKNS_5ctypeIcEE;
    _ZNKSt3__18time_getIwNS_19istreambuf_iteratorIwNS_11char_traitsIwEEEEE10__get_hourERiRS4_S4_RjRKNS_5ctypeIwEE;
    _ZNKSt3__18time_getIwNS_19istreambuf_iteratorIwNS_11char_traitsIwEEEEE10__get_yearERiRS4_S4_RjRKNS_5ctypeIwEE;
    _ZNKSt3__18time_getIwNS_19istreambuf_iteratorIwNS_11char_traitsIwEEEEE11do_get_dateES4_S4_RNS_8ios_baseERjP2tm;
    _ZNKSt3__18time_getIwNS_19istreambuf_iteratorIwNS_11char_traitsIwEEEEE11do_get_timeES4_S4_RNS_8ios_baseERjP2tm;
    _ZNKSt3__18time_getIwNS_19istreambuf_iteratorIwNS_11char_traitsIwEEEEE11do_get_yearES4_S4_RNS_8ios_baseERjP2tm;
    _ZNKSt3__18time_getIwNS_19istreambuf_iteratorIwNS_11char_traitsIwEEEEE11__get_am_pmERiRS4_S4_RjRKNS_5ctypeIwEE;
    _ZNKSt3__18time_getIwNS_19istreambuf_iteratorIwNS_11char_traitsIwEEEEE11__get_monthERiRS4_S4_RjRKNS_5ctypeIwEE;
    _ZNKSt3__18time_getIwNS_19istreambuf_iteratorIwNS_11char_traitsIwEEEEE11__get_year4ERiRS4_S4_RjRKNS_5ctypeIwEE;
    _ZNKSt3__18time_getIwNS_19istreambuf_iteratorIwNS_11char_traitsIwEEEEE12__get_minuteERiRS4_S4_RjRKNS_5ctypeIwEE;
    _ZNKSt3__18time_getIwNS_19istreambuf_iteratorIwNS_11char_traitsIwEEEEE12__get_secondERiRS4_S4_RjRKNS_5ctypeIwEE;
    _ZNKSt3__18time_getIwNS_19istreambuf_iteratorIwNS_11char_traitsIwEEEEE13do_date_orderEv;
    _ZNKSt3__18time_getIwNS_19istreambuf_iteratorIwNS_11char_traitsIwEEEEE13__get_12_hourERiRS4_S4_RjRKNS_5ctypeIwEE;
    _ZNKSt3__18time_getIwNS_19istreambuf_iteratorIwNS_11char_traitsIwEEEEE13__get_percentERS4_S4_RjRKNS_5ctypeIwEE;
    _ZNKSt3__18time_getIwNS_19istreambuf_iteratorIwNS_11char_traitsIwEEEEE13__get_weekdayERiRS4_S4_RjRKNS_5ctypeIwEE;
    _ZNKSt3__18time_getIwNS_19istreambuf_iteratorIwNS_11char_traitsIwEEEEE14do_get_weekdayES4_S4_RNS_8ios_baseERjP2tm;
    _ZNKSt3__18time_getIwNS_19istreambuf_iteratorIwNS_11char_traitsIwEEEEE15__get_monthnameERiRS4_S4_RjRKNS_5ctypeIwEE;
    _ZNKSt3__18time_getIwNS_19istreambuf_iteratorIwNS_11char_traitsIwEEEEE16do_get_monthnameES4_S4_RNS_8ios_baseERjP2tm;
    _ZNKSt3__18time_getIwNS_19istreambuf_iteratorIwNS_11char_traitsIwEEEEE17__get_weekdaynameERiRS4_S4_RjRKNS_5ctypeIwEE;
    _ZNKSt3__18time_getIwNS_19istreambuf_iteratorIwNS_11char_traitsIwEEEEE17__get_white_spaceERS4_S4_RjRKNS_5ctypeIwEE;
    _ZNKSt3__18time_getIwNS_19istreambuf_iteratorIwNS_11char_traitsIwEEEEE18__get_day_year_numERiRS4_S4_RjRKNS_5ctypeIwEE;
    _ZNKSt3__18time_getIwNS_19istreambuf_iteratorIwNS_11char_traitsIwEEEEE3getES4_S4_RNS_8ios_baseERjP2tmPKwSC_;
    _ZNKSt3__18time_getIwNS_19istreambuf_iteratorIwNS_11char_traitsIwEEEEE6do_getES4_S4_RNS_8ios_baseERjP2tmcc;
    _ZNKSt3__18time_getIwNS_19istreambuf_iteratorIwNS_11char_traitsIwEEEEE9__get_dayERiRS4_S4_RjRKNS_5ctypeIwEE;
    _ZNKSt3__18time_putIcNS_19ostreambuf_iteratorIcNS_11char_traitsIcEEEEE3putES4_RNS_8ios_baseEcPK2tmPKcSC_;
    _ZNKSt3__18time_putIcNS_19ostreambuf_iteratorIcNS_11char_traitsIcEEEEE6do_putES4_RNS_8ios_baseEcPK2tmcc;
    _ZNKSt3__18time_putIwNS_19ostreambuf_iteratorIwNS_11char_traitsIwEEEEE3putES4_RNS_8ios_baseEwPK2tmPKwSC_;
    _ZNKSt3__18time_putIwNS_19ostreambuf_iteratorIwNS_11char_traitsIwEEEEE6do_putES4_RNS_8ios_baseEwPK2tmcc;
    _ZNKSt3__19money_getIcNS_19istreambuf_iteratorIcNS_11char_traitsIcEEEEE6do_getES4_S4_bRNS_8ios_baseERjRe;
    _ZNKSt3__19money_getIcNS_19istreambuf_iteratorIcNS_11char_traitsIcEEEEE6do_getES4_S4_bRNS_8ios_baseERjRNS_12basic_stringIcS3_NS_9allocatorIcEEEE;
    _ZNKSt3__19money_getIwNS_19istreambuf_iteratorIwNS_11char_traitsIwEEEEE6do_getES4_S4_bRNS_8ios_baseERjRe;
    _ZNKSt3__19money_getIwNS_19istreambuf_iteratorIwNS_11char_traitsIwEEEEE6do_getES4_S4_bRNS_8ios_baseERjRNS_12basic_stringIwS3_NS_9allocatorIwEEEE;
    _ZNKSt3__19money_putIcNS_19ostreambuf_iteratorIcNS_11char_traitsIcEEEEE6do_putES4_bRNS_8ios_baseEce;
    _ZNKSt3__19money_putIcNS_19ostreambuf_iteratorIcNS_11char_traitsIcEEEEE6do_putES4_bRNS_8ios_baseEcRKNS_12basic_stringIcS3_NS_9allocatorIcEEEE;
    _ZNKSt3__19money_putIwNS_19ostreambuf_iteratorIwNS_11char_traitsIwEEEEE6do_putES4_bRNS_8ios_baseEwe;
    _ZNKSt3__19money_putIwNS_19ostreambuf_iteratorIwNS_11char_traitsIwEEEEE6do_putES4_bRNS_8ios_baseEwRKNS_12basic_stringIwS3_NS_9allocatorIwEEEE;
    _ZNSt11logic_erroraSERKS_;
    _ZNSt11logic_errorC1EPKc;
    _ZNSt11logic_errorC1ERKNSt3__112basic_stringIcNS0_11char_traitsIcEENS0_9allocatorIcEEEE;
    _ZNSt11logic_errorC1ERKS_;
    _ZNSt11logic_errorC2EPKc;
    _ZNSt11logic_errorC2ERKNSt3__112basic_stringIcNS0_11char_traitsIcEENS0_9allocatorIcEEEE;
    _ZNSt11logic_errorC2ERKS_;
    _ZNSt12experimental19bad_optional_accessD0Ev;
    _ZNSt12experimental19bad_optional_accessD1Ev;
    _ZNSt12experimental19bad_optional_accessD2Ev;
    _ZNSt13exception_ptraSERKS_;
    _ZNSt13exception_ptrC1ERKS_;
    _ZNSt13exception_ptrC2ERKS_;
    _ZNSt13exception_ptrD1Ev;
    _ZNSt13exception_ptrD2Ev;
    _ZNSt13runtime_erroraSERKS_;
    _ZNSt13runtime_errorC1EPKc;
    _ZNSt13runtime_errorC1ERKNSt3__112basic_stringIcNS0_11char_traitsIcEENS0_9allocatorIcEEEE;
    _ZNSt13runtime_errorC1ERKS_;
    _ZNSt13runtime_errorC2EPKc;
    _ZNSt13runtime_errorC2ERKNSt3__112basic_stringIcNS0_11char_traitsIcEENS0_9allocatorIcEEEE;
    _ZNSt13runtime_errorC2ERKS_;
    _ZNSt16nested_exceptionC1Ev;
    _ZNSt16nested_exceptionC2Ev;
    _ZNSt16nested_exceptionD0Ev;
    _ZNSt16nested_exceptionD1Ev;
    _ZNSt16nested_exceptionD2Ev;
    _ZNSt3__110adopt_lockE;
    _ZNSt3__110ctype_base5alnumE;
    _ZNSt3__110ctype_base5alphaE;
    _ZNSt3__110ctype_base5blankE;
    _ZNSt3__110ctype_base5cntrlE;
    _ZNSt3__110ctype_base5digitE;
    _ZNSt3__110ctype_base5graphE;
    _ZNSt3__110ctype_base5lowerE;
    _ZNSt3__110ctype_base5printE;
    _ZNSt3__110ctype_base5punctE;
    _ZNSt3__110ctype_base5spaceE;
    _ZNSt3__110ctype_base5upperE;
    _ZNSt3__110ctype_base6xdigitE;
    _ZNSt3__110defer_lockE;
    _ZNSt3__110istrstreamD0Ev;
    _ZNSt3__110istrstreamD1Ev;
    _ZNSt3__110istrstreamD2Ev;
    _ZNSt3__110moneypunctIcLb0EE2idE;
    _ZNSt3__110moneypunctIcLb0EE4intlE;
    _ZNSt3__110moneypunctIcLb1EE2idE;
    _ZNSt3__110moneypunctIcLb1EE4intlE;
    _ZNSt3__110moneypunctIwLb0EE2idE;
    _ZNSt3__110moneypunctIwLb0EE4intlE;
    _ZNSt3__110moneypunctIwLb1EE2idE;
    _ZNSt3__110moneypunctIwLb1EE4intlE;
    _ZNSt3__110__new_clocEv;
    _ZNSt3__110ostrstreamD0Ev;
    _ZNSt3__110ostrstreamD1Ev;
    _ZNSt3__110ostrstreamD2Ev;
    _ZNSt3__110__sscanf_lEPKcP13locale_structS1_z;
    _ZNSt3__110__time_getC1EPKc;
    _ZNSt3__110__time_getC1ERKNS_12basic_stringIcNS_11char_traitsIcEENS_9allocatorIcEEEE;
    _ZNSt3__110__time_getC2EPKc;
    _ZNSt3__110__time_getC2ERKNS_12basic_stringIcNS_11char_traitsIcEENS_9allocatorIcEEEE;
    _ZNSt3__110__time_getD1Ev;
    _ZNSt3__110__time_getD2Ev;
    _ZNSt3__110__time_putC1EPKc;
    _ZNSt3__110__time_putC1ERKNS_12basic_stringIcNS_11char_traitsIcEENS_9allocatorIcEEEE;
    _ZNSt3__110__time_putC2EPKc;
    _ZNSt3__110__time_putC2ERKNS_12basic_stringIcNS_11char_traitsIcEENS_9allocatorIcEEEE;
    _ZNSt3__110__time_putD1Ev;
    _ZNSt3__110__time_putD2Ev;
    _ZNSt3__110to_wstringEd;
    _ZNSt3__110to_wstringEe;
    _ZNSt3__110to_wstringEf;
    _ZNSt3__110to_wstringEg;
    _ZNSt3__110to_wstringEi;
    _ZNSt3__110to_wstringEj;
    _ZNSt3__110to_wstringEl;
    _ZNSt3__110to_wstringEm;
    _ZNSt3__110to_wstringEx;
    _ZNSt3__110to_wstringEy;
    _ZNSt3__111__call_onceERVmPvPFvS2_E;
    _ZNSt3__111__libcpp_db10__insert_cEPv;
    _ZNSt3__111__libcpp_db10__insert_iEPv;
    _ZNSt3__111__libcpp_db11__insert_icEPvPKv;
    _ZNSt3__111__libcpp_db15__iterator_copyEPvPKv;
    _ZNSt3__111__libcpp_db16__invalidate_allEPv;
    _ZNSt3__111__libcpp_db4swapEPvS1_;
    _ZNSt3__111__libcpp_db9__erase_cEPv;
    _ZNSt3__111__libcpp_db9__erase_iEPv;
    _ZNSt3__111__libcpp_dbC1Ev;
    _ZNSt3__111__libcpp_dbC2Ev;
    _ZNSt3__111__libcpp_dbD1Ev;
    _ZNSt3__111__libcpp_dbD2Ev;
    _ZNSt3__111__money_getIcE13__gather_infoEbRKNS_6localeERNS_10money_base7patternERcS8_RNS_12basic_stringIcNS_11char_traitsIcEENS_9allocatorIcEEEESF_SF_SF_Ri;
    _ZNSt3__111__money_getIwE13__gather_infoEbRKNS_6localeERNS_10money_base7patternERwS8_RNS_12basic_stringIcNS_11char_traitsIcEENS_9allocatorIcEEEERNS9_IwNSA_IwEENSC_IwEEEESJ_SJ_Ri;
    _ZNSt3__111__money_putIcE13__gather_infoEbbRKNS_6localeERNS_10money_base7patternERcS8_RNS_12basic_stringIcNS_11char_traitsIcEENS_9allocatorIcEEEESF_SF_Ri;
    _ZNSt3__111__money_putIcE8__formatEPcRS2_S3_jPKcS5_RKNS_5ctypeIcEEbRKNS_10money_base7patternEccRKNS_12basic_stringIcNS_11char_traitsIcEENS_9allocatorIcEEEESL_SL_i;
    _ZNSt3__111__money_putIwE13__gather_infoEbbRKNS_6localeERNS_10money_base7patternERwS8_RNS_12basic_stringIcNS_11char_traitsIcEENS_9allocatorIcEEEERNS9_IwNSA_IwEENSC_IwEEEESJ_Ri;
    _ZNSt3__111__money_putIwE8__formatEPwRS2_S3_jPKwS5_RKNS_5ctypeIwEEbRKNS_10money_base7patternEwwRKNS_12basic_stringIcNS_11char_traitsIcEENS_9allocatorIcEEEERKNSE_IwNSF_IwEENSH_IwEEEESQ_i;
    _ZNSt3__111regex_errorC1ENS_15regex_constants10error_typeE;
    _ZNSt3__111regex_errorC2ENS_15regex_constants10error_typeE;
    _ZNSt3__111regex_errorD0Ev;
    _ZNSt3__111regex_errorD1Ev;
    _ZNSt3__111regex_errorD2Ev;
    _ZNSt3__111this_thread9sleep_forERKNS_6chrono8durationIxNS_5ratioILx1ELx1000000000EEEEE;
    _ZNSt3__111timed_mutex4lockEv;
    _ZNSt3__111timed_mutex6unlockEv;
    _ZNSt3__111timed_mutex8try_lockEv;
    _ZNSt3__111timed_mutexC1Ev;
    _ZNSt3__111timed_mutexC2Ev;
    _ZNSt3__111timed_mutexD1Ev;
    _ZNSt3__111timed_mutexD2Ev;
    _ZNSt3__111try_to_lockE;
    _ZNSt3__111unique_lockINS_5mutexEE6unlockEv;
    _ZNSt3__112__asprintf_lEPPcP13locale_structPKcz;
    _ZNSt3__112bad_weak_ptrD0Ev;
    _ZNSt3__112bad_weak_ptrD1Ev;
    _ZNSt3__112bad_weak_ptrD2Ev;
    _ZNSt3__112basic_stringIcNS_11char_traitsIcEENS_9allocatorIcEEE21__grow_by_and_replaceEjjjjjjPKc;
    _ZNSt3__112basic_stringIcNS_11char_traitsIcEENS_9allocatorIcEEE2atEj;
    _ZNSt3__112basic_stringIcNS_11char_traitsIcEENS_9allocatorIcEEE4nposE;
    _ZNSt3__112basic_stringIcNS_11char_traitsIcEENS_9allocatorIcEEE5eraseEjj;
    _ZNSt3__112basic_stringIcNS_11char_traitsIcEENS_9allocatorIcEEE6appendEjc;
    _ZNSt3__112basic_stringIcNS_11char_traitsIcEENS_9allocatorIcEEE6appendEPKc;
    _ZNSt3__112basic_stringIcNS_11char_traitsIcEENS_9allocatorIcEEE6appendEPKcj;
    _ZNSt3__112basic_stringIcNS_11char_traitsIcEENS_9allocatorIcEEE6appendERKS5_jj;
    _ZNSt3__112basic_stringIcNS_11char_traitsIcEENS_9allocatorIcEEE6appendIPcEENS_9enable_ifIXsr21__is_forward_iteratorIT_EE5valueERS5_E4typeES9_S9_;
    _ZNSt3__112basic_stringIcNS_11char_traitsIcEENS_9allocatorIcEEE6assignEjc;
    _ZNSt3__112basic_stringIcNS_11char_traitsIcEENS_9allocatorIcEEE6assignEPKc;
    _ZNSt3__112basic_stringIcNS_11char_traitsIcEENS_9allocatorIcEEE6assignEPKcj;
    _ZNSt3__112basic_stringIcNS_11char_traitsIcEENS_9allocatorIcEEE6assignERKS5_jj;
    _ZNSt3__112basic_stringIcNS_11char_traitsIcEENS_9allocatorIcEEE6__initEjc;
    _ZNSt3__112basic_stringIcNS_11char_traitsIcEENS_9allocatorIcEEE6__initEPKcj;
    _ZNSt3__112basic_stringIcNS_11char_traitsIcEENS_9allocatorIcEEE6__initEPKcjj;
    _ZNSt3__112basic_stringIcNS_11char_traitsIcEENS_9allocatorIcEEE6__initIPKcEENS_9enable_ifIXsr21__is_forward_iteratorIT_EE5valueEvE4typeESA_SA_;
    _ZNSt3__112basic_stringIcNS_11char_traitsIcEENS_9allocatorIcEEE6insertEjjc;
    _ZNSt3__112basic_stringIcNS_11char_traitsIcEENS_9allocatorIcEEE6insertEjPKc;
    _ZNSt3__112basic_stringIcNS_11char_traitsIcEENS_9allocatorIcEEE6insertEjPKcj;
    _ZNSt3__112basic_stringIcNS_11char_traitsIcEENS_9allocatorIcEEE6insertEjRKS5_jj;
    _ZNSt3__112basic_stringIcNS_11char_traitsIcEENS_9allocatorIcEEE6insertENS_11__wrap_iterIPKcEEc;
    _ZNSt3__112basic_stringIcNS_11char_traitsIcEENS_9allocatorIcEEE6insertIPKcEENS_9enable_ifIXsr21__is_forward_iteratorIT_EE5valueENS_11__wrap_iterIPcEEE4typeENSB_IS8_EESA_SA_;
    _ZNSt3__112basic_stringIcNS_11char_traitsIcEENS_9allocatorIcEEE6resizeEjc;
    _ZNSt3__112basic_stringIcNS_11char_traitsIcEENS_9allocatorIcEEE7replaceEjjjc;
    _ZNSt3__112basic_stringIcNS_11char_traitsIcEENS_9allocatorIcEEE7replaceEjjPKc;
    _ZNSt3__112basic_stringIcNS_11char_traitsIcEENS_9allocatorIcEEE7replaceEjjPKcj;
    _ZNSt3__112basic_stringIcNS_11char_traitsIcEENS_9allocatorIcEEE7replaceEjjRKS5_jj;
    _ZNSt3__112basic_stringIcNS_11char_traitsIcEENS_9allocatorIcEEE7replaceIPKcEENS_9enable_ifIXsr19__is_input_iteratorIT_EE5valueERS5_E4typeENS_11__wrap_iterIS8_EESF_SA_SA_;
    _ZNSt3__112basic_stringIcNS_11char_traitsIcEENS_9allocatorIcEEE7reserveEj;
    _ZNSt3__112basic_stringIcNS_11char_traitsIcEENS_9allocatorIcEEE9__grow_byEjjjjjj;
    _ZNSt3__112basic_stringIcNS_11char_traitsIcEENS_9allocatorIcEEE9push_backEc;
    _ZNSt3__112basic_stringIcNS_11char_traitsIcEENS_9allocatorIcEEEaSEc;
    _ZNSt3__112basic_stringIcNS_11char_traitsIcEENS_9allocatorIcEEEaSERKS5_;
    _ZNSt3__112basic_stringIcNS_11char_traitsIcEENS_9allocatorIcEEEC1ERKS5_;
    _ZNSt3__112basic_stringIcNS_11char_traitsIcEENS_9allocatorIcEEEC1ERKS5_jjRKS4_;
    _ZNSt3__112basic_stringIcNS_11char_traitsIcEENS_9allocatorIcEEEC1ERKS5_RKS4_;
    _ZNSt3__112basic_stringIcNS_11char_traitsIcEENS_9allocatorIcEEEC2ERKS5_;
    _ZNSt3__112basic_stringIcNS_11char_traitsIcEENS_9allocatorIcEEEC2ERKS5_jjRKS4_;
    _ZNSt3__112basic_stringIcNS_11char_traitsIcEENS_9allocatorIcEEEC2ERKS5_RKS4_;
    _ZNSt3__112basic_stringIcNS_11char_traitsIcEENS_9allocatorIcEEED1Ev;
    _ZNSt3__112basic_stringIcNS_11char_traitsIcEENS_9allocatorIcEEED2Ev;
    _ZNSt3__112basic_stringIwNS_11char_traitsIwEENS_9allocatorIwEEE21__grow_by_and_replaceEjjjjjjPKw;
    _ZNSt3__112basic_stringIwNS_11char_traitsIwEENS_9allocatorIwEEE2atEj;
    _ZNSt3__112basic_stringIwNS_11char_traitsIwEENS_9allocatorIwEEE4nposE;
    _ZNSt3__112basic_stringIwNS_11char_traitsIwEENS_9allocatorIwEEE5eraseEjj;
    _ZNSt3__112basic_stringIwNS_11char_traitsIwEENS_9allocatorIwEEE6appendEjw;
    _ZNSt3__112basic_stringIwNS_11char_traitsIwEENS_9allocatorIwEEE6appendEPKw;
    _ZNSt3__112basic_stringIwNS_11char_traitsIwEENS_9allocatorIwEEE6appendEPKwj;
    _ZNSt3__112basic_stringIwNS_11char_traitsIwEENS_9allocatorIwEEE6appendERKS5_jj;
    _ZNSt3__112basic_stringIwNS_11char_traitsIwEENS_9allocatorIwEEE6appendIPwEENS_9enable_ifIXsr21__is_forward_iteratorIT_EE5valueERS5_E4typeES9_S9_;
    _ZNSt3__112basic_stringIwNS_11char_traitsIwEENS_9allocatorIwEEE6assignEjw;
    _ZNSt3__112basic_stringIwNS_11char_traitsIwEENS_9allocatorIwEEE6assignEPKw;
    _ZNSt3__112basic_stringIwNS_11char_traitsIwEENS_9allocatorIwEEE6assignEPKwj;
    _ZNSt3__112basic_stringIwNS_11char_traitsIwEENS_9allocatorIwEEE6assignERKS5_jj;
    _ZNSt3__112basic_stringIwNS_11char_traitsIwEENS_9allocatorIwEEE6assignIPwEENS_9enable_ifIXsr21__is_forward_iteratorIT_EE5valueERS5_E4typeES9_S9_;
    _ZNSt3__112basic_stringIwNS_11char_traitsIwEENS_9allocatorIwEEE6__initEjw;
    _ZNSt3__112basic_stringIwNS_11char_traitsIwEENS_9allocatorIwEEE6__initEPKwj;
    _ZNSt3__112basic_stringIwNS_11char_traitsIwEENS_9allocatorIwEEE6__initEPKwjj;
    _ZNSt3__112basic_stringIwNS_11char_traitsIwEENS_9allocatorIwEEE6__initIPKwEENS_9enable_ifIXsr21__is_forward_iteratorIT_EE5valueEvE4typeESA_SA_;
    _ZNSt3__112basic_stringIwNS_11char_traitsIwEENS_9allocatorIwEEE6insertEjjw;
    _ZNSt3__112basic_stringIwNS_11char_traitsIwEENS_9allocatorIwEEE6insertEjPKw;
    _ZNSt3__112basic_stringIwNS_11char_traitsIwEENS_9allocatorIwEEE6insertEjPKwj;
    _ZNSt3__112basic_stringIwNS_11char_traitsIwEENS_9allocatorIwEEE6insertEjRKS5_jj;
    _ZNSt3__112basic_stringIwNS_11char_traitsIwEENS_9allocatorIwEEE6insertENS_11__wrap_iterIPKwEEw;
    _ZNSt3__112basic_stringIwNS_11char_traitsIwEENS_9allocatorIwEEE6insertIPKwEENS_9enable_ifIXsr21__is_forward_iteratorIT_EE5valueENS_11__wrap_iterIPwEEE4typeENSB_IS8_EESA_SA_;
    _ZNSt3__112basic_stringIwNS_11char_traitsIwEENS_9allocatorIwEEE6resizeEjw;
    _ZNSt3__112basic_stringIwNS_11char_traitsIwEENS_9allocatorIwEEE7replaceEjjjw;
    _ZNSt3__112basic_stringIwNS_11char_traitsIwEENS_9allocatorIwEEE7replaceEjjPKw;
    _ZNSt3__112basic_stringIwNS_11char_traitsIwEENS_9allocatorIwEEE7replaceEjjPKwj;
    _ZNSt3__112basic_stringIwNS_11char_traitsIwEENS_9allocatorIwEEE7replaceEjjRKS5_jj;
    _ZNSt3__112basic_stringIwNS_11char_traitsIwEENS_9allocatorIwEEE7replaceIPKwEENS_9enable_ifIXsr19__is_input_iteratorIT_EE5valueERS5_E4typeENS_11__wrap_iterIS8_EESF_SA_SA_;
    _ZNSt3__112basic_stringIwNS_11char_traitsIwEENS_9allocatorIwEEE7reserveEj;
    _ZNSt3__112basic_stringIwNS_11char_traitsIwEENS_9allocatorIwEEE9__grow_byEjjjjjj;
    _ZNSt3__112basic_stringIwNS_11char_traitsIwEENS_9allocatorIwEEE9push_backEw;
    _ZNSt3__112basic_stringIwNS_11char_traitsIwEENS_9allocatorIwEEEaSERKS5_;
    _ZNSt3__112basic_stringIwNS_11char_traitsIwEENS_9allocatorIwEEEaSEw;
    _ZNSt3__112basic_stringIwNS_11char_traitsIwEENS_9allocatorIwEEEC1ERKS5_;
    _ZNSt3__112basic_stringIwNS_11char_traitsIwEENS_9allocatorIwEEEC1ERKS5_jjRKS4_;
    _ZNSt3__112basic_stringIwNS_11char_traitsIwEENS_9allocatorIwEEEC1ERKS5_RKS4_;
    _ZNSt3__112basic_stringIwNS_11char_traitsIwEENS_9allocatorIwEEEC2ERKS5_;
    _ZNSt3__112basic_stringIwNS_11char_traitsIwEENS_9allocatorIwEEEC2ERKS5_jjRKS4_;
    _ZNSt3__112basic_stringIwNS_11char_traitsIwEENS_9allocatorIwEEEC2ERKS5_RKS4_;
    _ZNSt3__112basic_stringIwNS_11char_traitsIwEENS_9allocatorIwEEED1Ev;
    _ZNSt3__112basic_stringIwNS_11char_traitsIwEENS_9allocatorIwEEED2Ev;
    _ZNSt3__112ctype_bynameIcEC1EPKcj;
    _ZNSt3__112ctype_bynameIcEC1ERKNS_12basic_stringIcNS_11char_traitsIcEENS_9allocatorIcEEEEj;
    _ZNSt3__112ctype_bynameIcEC2EPKcj;
    _ZNSt3__112ctype_bynameIcEC2ERKNS_12basic_stringIcNS_11char_traitsIcEENS_9allocatorIcEEEEj;
    _ZNSt3__112ctype_bynameIcED0Ev;
    _ZNSt3__112ctype_bynameIcED1Ev;
    _ZNSt3__112ctype_bynameIcED2Ev;
    _ZNSt3__112ctype_bynameIwEC1EPKcj;
    _ZNSt3__112ctype_bynameIwEC1ERKNS_12basic_stringIcNS_11char_traitsIcEENS_9allocatorIcEEEEj;
    _ZNSt3__112ctype_bynameIwEC2EPKcj;
    _ZNSt3__112ctype_bynameIwEC2ERKNS_12basic_stringIcNS_11char_traitsIcEENS_9allocatorIcEEEEj;
    _ZNSt3__112ctype_bynameIwED0Ev;
    _ZNSt3__112ctype_bynameIwED1Ev;
    _ZNSt3__112ctype_bynameIwED2Ev;
    _ZNSt3__112__do_nothingEPv;
    _ZNSt3__112future_errorC1ENS_10error_codeE;
    _ZNSt3__112future_errorC2ENS_10error_codeE;
    _ZNSt3__112future_errorC2ERKS0_;
    _ZNSt3__112future_errorD0Ev;
    _ZNSt3__112future_errorD1Ev;
    _ZNSt3__112future_errorD2Ev;
    _ZNSt3__112__get_sp_mutEPKv;
    _ZNSt3__112__next_primeEj;
    _ZNSt3__112__next_primeEm;
    _ZNSt3__112placeholders2_1E;
    _ZNSt3__112placeholders2_2E;
    _ZNSt3__112placeholders2_3E;
    _ZNSt3__112placeholders2_4E;
    _ZNSt3__112placeholders2_5E;
    _ZNSt3__112placeholders2_6E;
    _ZNSt3__112placeholders2_7E;
    _ZNSt3__112placeholders2_8E;
    _ZNSt3__112placeholders2_9E;
    _ZNSt3__112placeholders3_10E;
    _ZNSt3__112__rotate_gcdINS_11__wrap_iterIPcEEEET_S4_S4_S4_;
    _ZNSt3__112__rotate_gcdINS_11__wrap_iterIPwEEEET_S4_S4_S4_;
    _ZNSt3__112__rs_default4__c_E;
    _ZNSt3__112__rs_defaultC1ERKS0_;
    _ZNSt3__112__rs_defaultC1Ev;
    _ZNSt3__112__rs_defaultC2ERKS0_;
    _ZNSt3__112__rs_defaultC2Ev;
    _ZNSt3__112__rs_defaultclEv;
    _ZNSt3__112__rs_defaultD1Ev;
    _ZNSt3__112__rs_defaultD2Ev;
    _ZNSt3__112__snprintf_lEPcjP13locale_structPKcz;
    _ZNSt3__112strstreambuf3strEv;
    _ZNSt3__112strstreambuf4swapERS0_;
    _ZNSt3__112strstreambuf6freezeEb;
    _ZNSt3__112strstreambuf6__initEPciS1_;
    _ZNSt3__112strstreambuf7seekoffExNS_8ios_base7seekdirEj;
    _ZNSt3__112strstreambuf7seekposENS_4fposI9mbstate_tEEj;
    _ZNSt3__112strstreambuf8overflowEi;
    _ZNSt3__112strstreambuf9pbackfailEi;
    _ZNSt3__112strstreambuf9underflowEv;
    _ZNSt3__112strstreambufC1Ei;
    _ZNSt3__112strstreambufC1EPaiS1_;
    _ZNSt3__112strstreambufC1EPciS1_;
    _ZNSt3__112strstreambufC1EPFPvjEPFvS1_E;
    _ZNSt3__112strstreambufC1EPhiS1_;
    _ZNSt3__112strstreambufC1EPKai;
    _ZNSt3__112strstreambufC1EPKci;
    _ZNSt3__112strstreambufC1EPKhi;
    _ZNSt3__112strstreambufC2Ei;
    _ZNSt3__112strstreambufC2EPaiS1_;
    _ZNSt3__112strstreambufC2EPciS1_;
    _ZNSt3__112strstreambufC2EPFPvjEPFvS1_E;
    _ZNSt3__112strstreambufC2EPhiS1_;
    _ZNSt3__112strstreambufC2EPKai;
    _ZNSt3__112strstreambufC2EPKci;
    _ZNSt3__112strstreambufC2EPKhi;
    _ZNSt3__112strstreambufD0Ev;
    _ZNSt3__112strstreambufD1Ev;
    _ZNSt3__112strstreambufD2Ev;
    _ZNSt3__112system_error6__initERKNS_10error_codeENS_12basic_stringIcNS_11char_traitsIcEENS_9allocatorIcEEEE;
    _ZNSt3__112system_errorC1EiRKNS_14error_categoryE;
    _ZNSt3__112system_errorC1EiRKNS_14error_categoryEPKc;
    _ZNSt3__112system_errorC1EiRKNS_14error_categoryERKNS_12basic_stringIcNS_11char_traitsIcEENS_9allocatorIcEEEE;
    _ZNSt3__112system_errorC1ENS_10error_codeE;
    _ZNSt3__112system_errorC1ENS_10error_codeEPKc;
    _ZNSt3__112system_errorC1ENS_10error_codeERKNS_12basic_stringIcNS_11char_traitsIcEENS_9allocatorIcEEEE;
    _ZNSt3__112system_errorC2EiRKNS_14error_categoryE;
    _ZNSt3__112system_errorC2EiRKNS_14error_categoryEPKc;
    _ZNSt3__112system_errorC2EiRKNS_14error_categoryERKNS_12basic_stringIcNS_11char_traitsIcEENS_9allocatorIcEEEE;
    _ZNSt3__112system_errorC2ENS_10error_codeE;
    _ZNSt3__112system_errorC2ENS_10error_codeEPKc;
    _ZNSt3__112system_errorC2ENS_10error_codeERKNS_12basic_stringIcNS_11char_traitsIcEENS_9allocatorIcEEEE;
    _ZNSt3__112system_errorD0Ev;
    _ZNSt3__112system_errorD1Ev;
    _ZNSt3__112system_errorD2Ev;
    _ZNSt3__113allocator_argE;
    _ZNSt3__113basic_istreamIcNS_11char_traitsIcEEE3getEPci;
    _ZNSt3__113basic_istreamIcNS_11char_traitsIcEEE3getEPcic;
    _ZNSt3__113basic_istreamIcNS_11char_traitsIcEEE3getERc;
    _ZNSt3__113basic_istreamIcNS_11char_traitsIcEEE3getERNS_15basic_streambufIcS2_EE;
    _ZNSt3__113basic_istreamIcNS_11char_traitsIcEEE3getERNS_15basic_streambufIcS2_EEc;
    _ZNSt3__113basic_istreamIcNS_11char_traitsIcEEE3getEv;
    _ZNSt3__113basic_istreamIcNS_11char_traitsIcEEE4peekEv;
    _ZNSt3__113basic_istreamIcNS_11char_traitsIcEEE4readEPci;
    _ZNSt3__113basic_istreamIcNS_11char_traitsIcEEE4swapERS3_;
    _ZNSt3__113basic_istreamIcNS_11char_traitsIcEEE4syncEv;
    _ZNSt3__113basic_istreamIcNS_11char_traitsIcEEE5seekgENS_4fposI9mbstate_tEE;
    _ZNSt3__113basic_istreamIcNS_11char_traitsIcEEE5seekgExNS_8ios_base7seekdirE;
    _ZNSt3__113basic_istreamIcNS_11char_traitsIcEEE5tellgEv;
    _ZNSt3__113basic_istreamIcNS_11char_traitsIcEEE5ungetEv;
    _ZNSt3__113basic_istreamIcNS_11char_traitsIcEEE6ignoreEii;
    _ZNSt3__113basic_istreamIcNS_11char_traitsIcEEE6sentryC1ERS3_b;
    _ZNSt3__113basic_istreamIcNS_11char_traitsIcEEE6sentryC2ERS3_b;
    _ZNSt3__113basic_istreamIcNS_11char_traitsIcEEE7getlineEPci;
    _ZNSt3__113basic_istreamIcNS_11char_traitsIcEEE7getlineEPcic;
    _ZNSt3__113basic_istreamIcNS_11char_traitsIcEEE7putbackEc;
    _ZNSt3__113basic_istreamIcNS_11char_traitsIcEEE8readsomeEPci;
    _ZNSt3__113basic_istreamIcNS_11char_traitsIcEEEC1EPNS_15basic_streambufIcS2_EE;
    _ZNSt3__113basic_istreamIcNS_11char_traitsIcEEEC2EPNS_15basic_streambufIcS2_EE;
    _ZNSt3__113basic_istreamIcNS_11char_traitsIcEEED0Ev;
    _ZNSt3__113basic_istreamIcNS_11char_traitsIcEEED1Ev;
    _ZNSt3__113basic_istreamIcNS_11char_traitsIcEEED2Ev;
    _ZNSt3__113basic_istreamIcNS_11char_traitsIcEEErsEPFRNS_8ios_baseES5_E;
    _ZNSt3__113basic_istreamIcNS_11char_traitsIcEEErsEPFRNS_9basic_iosIcS2_EES6_E;
    _ZNSt3__113basic_istreamIcNS_11char_traitsIcEEErsEPFRS3_S4_E;
    _ZNSt3__113basic_istreamIcNS_11char_traitsIcEEErsEPNS_15basic_streambufIcS2_EE;
    _ZNSt3__113basic_istreamIcNS_11char_traitsIcEEErsERb;
    _ZNSt3__113basic_istreamIcNS_11char_traitsIcEEErsERd;
    _ZNSt3__113basic_istreamIcNS_11char_traitsIcEEErsERe;
    _ZNSt3__113basic_istreamIcNS_11char_traitsIcEEErsERf;
    _ZNSt3__113basic_istreamIcNS_11char_traitsIcEEErsERi;
    _ZNSt3__113basic_istreamIcNS_11char_traitsIcEEErsERj;
    _ZNSt3__113basic_istreamIcNS_11char_traitsIcEEErsERl;
    _ZNSt3__113basic_istreamIcNS_11char_traitsIcEEErsERm;
    _ZNSt3__113basic_istreamIcNS_11char_traitsIcEEErsERPv;
    _ZNSt3__113basic_istreamIcNS_11char_traitsIcEEErsERs;
    _ZNSt3__113basic_istreamIcNS_11char_traitsIcEEErsERt;
    _ZNSt3__113basic_istreamIcNS_11char_traitsIcEEErsERx;
    _ZNSt3__113basic_istreamIcNS_11char_traitsIcEEErsERy;
    _ZNSt3__113basic_istreamIwNS_11char_traitsIwEEE3getEPwi;
    _ZNSt3__113basic_istreamIwNS_11char_traitsIwEEE3getEPwiw;
    _ZNSt3__113basic_istreamIwNS_11char_traitsIwEEE3getERNS_15basic_streambufIwS2_EE;
    _ZNSt3__113basic_istreamIwNS_11char_traitsIwEEE3getERNS_15basic_streambufIwS2_EEw;
    _ZNSt3__113basic_istreamIwNS_11char_traitsIwEEE3getERw;
    _ZNSt3__113basic_istreamIwNS_11char_traitsIwEEE3getEv;
    _ZNSt3__113basic_istreamIwNS_11char_traitsIwEEE4peekEv;
    _ZNSt3__113basic_istreamIwNS_11char_traitsIwEEE4readEPwi;
    _ZNSt3__113basic_istreamIwNS_11char_traitsIwEEE4swapERS3_;
    _ZNSt3__113basic_istreamIwNS_11char_traitsIwEEE4syncEv;
    _ZNSt3__113basic_istreamIwNS_11char_traitsIwEEE5seekgENS_4fposI9mbstate_tEE;
    _ZNSt3__113basic_istreamIwNS_11char_traitsIwEEE5seekgExNS_8ios_base7seekdirE;
    _ZNSt3__113basic_istreamIwNS_11char_traitsIwEEE5tellgEv;
    _ZNSt3__113basic_istreamIwNS_11char_traitsIwEEE5ungetEv;
    _ZNSt3__113basic_istreamIwNS_11char_traitsIwEEE6ignoreEii;
    _ZNSt3__113basic_istreamIwNS_11char_traitsIwEEE6sentryC1ERS3_b;
    _ZNSt3__113basic_istreamIwNS_11char_traitsIwEEE6sentryC2ERS3_b;
    _ZNSt3__113basic_istreamIwNS_11char_traitsIwEEE7getlineEPwi;
    _ZNSt3__113basic_istreamIwNS_11char_traitsIwEEE7getlineEPwiw;
    _ZNSt3__113basic_istreamIwNS_11char_traitsIwEEE7putbackEw;
    _ZNSt3__113basic_istreamIwNS_11char_traitsIwEEE8readsomeEPwi;
    _ZNSt3__113basic_istreamIwNS_11char_traitsIwEEEC1EPNS_15basic_streambufIwS2_EE;
    _ZNSt3__113basic_istreamIwNS_11char_traitsIwEEEC2EPNS_15basic_streambufIwS2_EE;
    _ZNSt3__113basic_istreamIwNS_11char_traitsIwEEED0Ev;
    _ZNSt3__113basic_istreamIwNS_11char_traitsIwEEED1Ev;
    _ZNSt3__113basic_istreamIwNS_11char_traitsIwEEED2Ev;
    _ZNSt3__113basic_istreamIwNS_11char_traitsIwEEErsEPFRNS_8ios_baseES5_E;
    _ZNSt3__113basic_istreamIwNS_11char_traitsIwEEErsEPFRNS_9basic_iosIwS2_EES6_E;
    _ZNSt3__113basic_istreamIwNS_11char_traitsIwEEErsEPFRS3_S4_E;
    _ZNSt3__113basic_istreamIwNS_11char_traitsIwEEErsEPNS_15basic_streambufIwS2_EE;
    _ZNSt3__113basic_istreamIwNS_11char_traitsIwEEErsERb;
    _ZNSt3__113basic_istreamIwNS_11char_traitsIwEEErsERd;
    _ZNSt3__113basic_istreamIwNS_11char_traitsIwEEErsERe;
    _ZNSt3__113basic_istreamIwNS_11char_traitsIwEEErsERf;
    _ZNSt3__113basic_istreamIwNS_11char_traitsIwEEErsERi;
    _ZNSt3__113basic_istreamIwNS_11char_traitsIwEEErsERj;
    _ZNSt3__113basic_istreamIwNS_11char_traitsIwEEErsERl;
    _ZNSt3__113basic_istreamIwNS_11char_traitsIwEEErsERm;
    _ZNSt3__113basic_istreamIwNS_11char_traitsIwEEErsERPv;
    _ZNSt3__113basic_istreamIwNS_11char_traitsIwEEErsERs;
    _ZNSt3__113basic_istreamIwNS_11char_traitsIwEEErsERt;
    _ZNSt3__113basic_istreamIwNS_11char_traitsIwEEErsERx;
    _ZNSt3__113basic_istreamIwNS_11char_traitsIwEEErsERy;
    _ZNSt3__113basic_ostreamIcNS_11char_traitsIcEEE3putEc;
    _ZNSt3__113basic_ostreamIcNS_11char_traitsIcEEE4swapERS3_;
    _ZNSt3__113basic_ostreamIcNS_11char_traitsIcEEE5flushEv;
    _ZNSt3__113basic_ostreamIcNS_11char_traitsIcEEE5seekpENS_4fposI9mbstate_tEE;
    _ZNSt3__113basic_ostreamIcNS_11char_traitsIcEEE5seekpExNS_8ios_base7seekdirE;
    _ZNSt3__113basic_ostreamIcNS_11char_traitsIcEEE5tellpEv;
    _ZNSt3__113basic_ostreamIcNS_11char_traitsIcEEE5writeEPKci;
    _ZNSt3__113basic_ostreamIcNS_11char_traitsIcEEE6sentryC1ERS3_;
    _ZNSt3__113basic_ostreamIcNS_11char_traitsIcEEE6sentryC2ERS3_;
    _ZNSt3__113basic_ostreamIcNS_11char_traitsIcEEE6sentryD1Ev;
    _ZNSt3__113basic_ostreamIcNS_11char_traitsIcEEE6sentryD2Ev;
    _ZNSt3__113basic_ostreamIcNS_11char_traitsIcEEEC1EPNS_15basic_streambufIcS2_EE;
    _ZNSt3__113basic_ostreamIcNS_11char_traitsIcEEEC2EPNS_15basic_streambufIcS2_EE;
    _ZNSt3__113basic_ostreamIcNS_11char_traitsIcEEED0Ev;
    _ZNSt3__113basic_ostreamIcNS_11char_traitsIcEEED1Ev;
    _ZNSt3__113basic_ostreamIcNS_11char_traitsIcEEED2Ev;
    _ZNSt3__113basic_ostreamIcNS_11char_traitsIcEEElsEb;
    _ZNSt3__113basic_ostreamIcNS_11char_traitsIcEEElsEd;
    _ZNSt3__113basic_ostreamIcNS_11char_traitsIcEEElsEe;
    _ZNSt3__113basic_ostreamIcNS_11char_traitsIcEEElsEf;
    _ZNSt3__113basic_ostreamIcNS_11char_traitsIcEEElsEi;
    _ZNSt3__113basic_ostreamIcNS_11char_traitsIcEEElsEj;
    _ZNSt3__113basic_ostreamIcNS_11char_traitsIcEEElsEl;
    _ZNSt3__113basic_ostreamIcNS_11char_traitsIcEEElsEm;
    _ZNSt3__113basic_ostreamIcNS_11char_traitsIcEEElsEPFRNS_8ios_baseES5_E;
    _ZNSt3__113basic_ostreamIcNS_11char_traitsIcEEElsEPFRNS_9basic_iosIcS2_EES6_E;
    _ZNSt3__113basic_ostreamIcNS_11char_traitsIcEEElsEPFRS3_S4_E;
    _ZNSt3__113basic_ostreamIcNS_11char_traitsIcEEElsEPKv;
    _ZNSt3__113basic_ostreamIcNS_11char_traitsIcEEElsEPNS_15basic_streambufIcS2_EE;
    _ZNSt3__113basic_ostreamIcNS_11char_traitsIcEEElsEs;
    _ZNSt3__113basic_ostreamIcNS_11char_traitsIcEEElsEt;
    _ZNSt3__113basic_ostreamIcNS_11char_traitsIcEEElsEx;
    _ZNSt3__113basic_ostreamIcNS_11char_traitsIcEEElsEy;
    _ZNSt3__113basic_ostreamIwNS_11char_traitsIwEEE3putEw;
    _ZNSt3__113basic_ostreamIwNS_11char_traitsIwEEE4swapERS3_;
    _ZNSt3__113basic_ostreamIwNS_11char_traitsIwEEE5flushEv;
    _ZNSt3__113basic_ostreamIwNS_11char_traitsIwEEE5seekpENS_4fposI9mbstate_tEE;
    _ZNSt3__113basic_ostreamIwNS_11char_traitsIwEEE5seekpExNS_8ios_base7seekdirE;
    _ZNSt3__113basic_ostreamIwNS_11char_traitsIwEEE5tellpEv;
    _ZNSt3__113basic_ostreamIwNS_11char_traitsIwEEE5writeEPKwi;
    _ZNSt3__113basic_ostreamIwNS_11char_traitsIwEEE6sentryC1ERS3_;
    _ZNSt3__113basic_ostreamIwNS_11char_traitsIwEEE6sentryC2ERS3_;
    _ZNSt3__113basic_ostreamIwNS_11char_traitsIwEEE6sentryD1Ev;
    _ZNSt3__113basic_ostreamIwNS_11char_traitsIwEEE6sentryD2Ev;
    _ZNSt3__113basic_ostreamIwNS_11char_traitsIwEEEC1EPNS_15basic_streambufIwS2_EE;
    _ZNSt3__113basic_ostreamIwNS_11char_traitsIwEEEC2EPNS_15basic_streambufIwS2_EE;
    _ZNSt3__113basic_ostreamIwNS_11char_traitsIwEEED0Ev;
    _ZNSt3__113basic_ostreamIwNS_11char_traitsIwEEED1Ev;
    _ZNSt3__113basic_ostreamIwNS_11char_traitsIwEEED2Ev;
    _ZNSt3__113basic_ostreamIwNS_11char_traitsIwEEElsEb;
    _ZNSt3__113basic_ostreamIwNS_11char_traitsIwEEElsEd;
    _ZNSt3__113basic_ostreamIwNS_11char_traitsIwEEElsEe;
    _ZNSt3__113basic_ostreamIwNS_11char_traitsIwEEElsEf;
    _ZNSt3__113basic_ostreamIwNS_11char_traitsIwEEElsEi;
    _ZNSt3__113basic_ostreamIwNS_11char_traitsIwEEElsEj;
    _ZNSt3__113basic_ostreamIwNS_11char_traitsIwEEElsEl;
    _ZNSt3__113basic_ostreamIwNS_11char_traitsIwEEElsEm;
    _ZNSt3__113basic_ostreamIwNS_11char_traitsIwEEElsEPFRNS_8ios_baseES5_E;
    _ZNSt3__113basic_ostreamIwNS_11char_traitsIwEEElsEPFRNS_9basic_iosIwS2_EES6_E;
    _ZNSt3__113basic_ostreamIwNS_11char_traitsIwEEElsEPFRS3_S4_E;
    _ZNSt3__113basic_ostreamIwNS_11char_traitsIwEEElsEPKv;
    _ZNSt3__113basic_ostreamIwNS_11char_traitsIwEEElsEPNS_15basic_streambufIwS2_EE;
    _ZNSt3__113basic_ostreamIwNS_11char_traitsIwEEElsEs;
    _ZNSt3__113basic_ostreamIwNS_11char_traitsIwEEElsEt;
    _ZNSt3__113basic_ostreamIwNS_11char_traitsIwEEElsEx;
    _ZNSt3__113basic_ostreamIwNS_11char_traitsIwEEElsEy;
    _ZNSt3__113find_first_ofIPKcS2_PFbccEEET_S5_S5_T0_S6_T1_;
    _ZNSt3__113find_first_ofIPKwS2_PFbwwEEET_S5_S5_T0_S6_T1_;
    _ZNSt3__113__lower_boundIRNS_6__lessIjjEEPKjjEET0_S6_S6_RKT1_T_;
    _ZNSt3__113random_deviceC1ERKNS_12basic_stringIcNS_11char_traitsIcEENS_9allocatorIcEEEE;
    _ZNSt3__113random_deviceC2ERKNS_12basic_stringIcNS_11char_traitsIcEENS_9allocatorIcEEEE;
    _ZNSt3__113random_deviceclEv;
    _ZNSt3__113random_deviceD1Ev;
    _ZNSt3__113random_deviceD2Ev;
    _ZNSt3__113__rotate_leftINS_11__wrap_iterIPcEEEET_S4_S4_;
    _ZNSt3__113__rotate_leftINS_11__wrap_iterIPwEEEET_S4_S4_;
    _ZNSt3__113shared_futureIvEaSERKS1_;
    _ZNSt3__113shared_futureIvED1Ev;
    _ZNSt3__113shared_futureIvED2Ev;
    _ZNSt3__114basic_iostreamIcNS_11char_traitsIcEEE4swapERS3_;
    _ZNSt3__114basic_iostreamIcNS_11char_traitsIcEEEC1EPNS_15basic_streambufIcS2_EE;
    _ZNSt3__114basic_iostreamIcNS_11char_traitsIcEEEC2EPNS_15basic_streambufIcS2_EE;
    _ZNSt3__114basic_iostreamIcNS_11char_traitsIcEEED0Ev;
    _ZNSt3__114basic_iostreamIcNS_11char_traitsIcEEED1Ev;
    _ZNSt3__114basic_iostreamIcNS_11char_traitsIcEEED2Ev;
    _ZNSt3__114codecvt_bynameIcc9mbstate_tED0Ev;
    _ZNSt3__114codecvt_bynameIcc9mbstate_tED1Ev;
    _ZNSt3__114codecvt_bynameIcc9mbstate_tED2Ev;
    _ZNSt3__114codecvt_bynameIDic9mbstate_tED0Ev;
    _ZNSt3__114codecvt_bynameIDic9mbstate_tED1Ev;
    _ZNSt3__114codecvt_bynameIDic9mbstate_tED2Ev;
    _ZNSt3__114codecvt_bynameIDsc9mbstate_tED0Ev;
    _ZNSt3__114codecvt_bynameIDsc9mbstate_tED1Ev;
    _ZNSt3__114codecvt_bynameIDsc9mbstate_tED2Ev;
    _ZNSt3__114codecvt_bynameIwc9mbstate_tED0Ev;
    _ZNSt3__114codecvt_bynameIwc9mbstate_tED1Ev;
    _ZNSt3__114codecvt_bynameIwc9mbstate_tED2Ev;
    _ZNSt3__114__codecvt_utf8IDiED0Ev;
    _ZNSt3__114__codecvt_utf8IDiED2Ev;
    _ZNSt3__114__codecvt_utf8IDsED0Ev;
    _ZNSt3__114__codecvt_utf8IDsED2Ev;
    _ZNSt3__114__codecvt_utf8IwED0Ev;
    _ZNSt3__114__codecvt_utf8IwED2Ev;
    _ZNSt3__114collate_bynameIcEC1EPKcj;
    _ZNSt3__114collate_bynameIcEC1ERKNS_12basic_stringIcNS_11char_traitsIcEENS_9allocatorIcEEEEj;
    _ZNSt3__114collate_bynameIcEC2EPKcj;
    _ZNSt3__114collate_bynameIcEC2ERKNS_12basic_stringIcNS_11char_traitsIcEENS_9allocatorIcEEEEj;
    _ZNSt3__114collate_bynameIcED0Ev;
    _ZNSt3__114collate_bynameIcED1Ev;
    _ZNSt3__114collate_bynameIcED2Ev;
    _ZNSt3__114collate_bynameIwEC1EPKcj;
    _ZNSt3__114collate_bynameIwEC1ERKNS_12basic_stringIcNS_11char_traitsIcEENS_9allocatorIcEEEEj;
    _ZNSt3__114collate_bynameIwEC2EPKcj;
    _ZNSt3__114collate_bynameIwEC2ERKNS_12basic_stringIcNS_11char_traitsIcEENS_9allocatorIcEEEEj;
    _ZNSt3__114collate_bynameIwED0Ev;
    _ZNSt3__114collate_bynameIwED1Ev;
    _ZNSt3__114collate_bynameIwED2Ev;
    _ZNSt3__114error_categoryC1Ev;
    _ZNSt3__114error_categoryC2Ev;
    _ZNSt3__114error_categoryD0Ev;
    _ZNSt3__114error_categoryD1Ev;
    _ZNSt3__114error_categoryD2Ev;
    _ZNSt3__114__get_const_dbEv;
    _ZNSt3__114__num_get_base10__get_baseERNS_8ios_baseE;
    _ZNSt3__114__num_get_base5__srcE;
    _ZNSt3__114__num_put_base12__format_intEPcPKcbj;
    _ZNSt3__114__num_put_base14__format_floatEPcPKcj;
    _ZNSt3__114__num_put_base18__identify_paddingEPcS1_RKNS_8ios_baseE;
    _ZNSt3__114__rotate_rightINS_11__wrap_iterIPcEEEET_S4_S4_;
    _ZNSt3__114__rotate_rightINS_11__wrap_iterIPwEEEET_S4_S4_;
    _ZNSt3__114__shared_count12__add_sharedEv;
    _ZNSt3__114__shared_count16__release_sharedEv;
    _ZNSt3__114__shared_countD0Ev;
    _ZNSt3__114__shared_countD1Ev;
    _ZNSt3__114__shared_countD2Ev;
    _ZNSt3__115basic_streambufIcNS_11char_traitsIcEEE10pubseekoffExNS_8ios_base7seekdirEj;
    _ZNSt3__115basic_streambufIcNS_11char_traitsIcEEE10pubseekposENS_4fposI9mbstate_tEEj;
    _ZNSt3__115basic_streambufIcNS_11char_traitsIcEEE4setgEPcS4_S4_;
    _ZNSt3__115basic_streambufIcNS_11char_traitsIcEEE4setpEPcS4_;
    _ZNSt3__115basic_streambufIcNS_11char_traitsIcEEE4swapERS3_;
    _ZNSt3__115basic_streambufIcNS_11char_traitsIcEEE4syncEv;
    _ZNSt3__115basic_streambufIcNS_11char_traitsIcEEE5gbumpEi;
    _ZNSt3__115basic_streambufIcNS_11char_traitsIcEEE5imbueERKNS_6localeE;
    _ZNSt3__115basic_streambufIcNS_11char_traitsIcEEE5pbumpEi;
    _ZNSt3__115basic_streambufIcNS_11char_traitsIcEEE5sgetcEv;
    _ZNSt3__115basic_streambufIcNS_11char_traitsIcEEE5sgetnEPci;
    _ZNSt3__115basic_streambufIcNS_11char_traitsIcEEE5sputcEc;
    _ZNSt3__115basic_streambufIcNS_11char_traitsIcEEE5sputnEPKci;
    _ZNSt3__115basic_streambufIcNS_11char_traitsIcEEE5uflowEv;
    _ZNSt3__115basic_streambufIcNS_11char_traitsIcEEE6sbumpcEv;
    _ZNSt3__115basic_streambufIcNS_11char_traitsIcEEE6setbufEPci;
    _ZNSt3__115basic_streambufIcNS_11char_traitsIcEEE6snextcEv;
    _ZNSt3__115basic_streambufIcNS_11char_traitsIcEEE6xsgetnEPci;
    _ZNSt3__115basic_streambufIcNS_11char_traitsIcEEE6xsputnEPKci;
    _ZNSt3__115basic_streambufIcNS_11char_traitsIcEEE7pubsyncEv;
    _ZNSt3__115basic_streambufIcNS_11char_traitsIcEEE7seekoffExNS_8ios_base7seekdirEj;
    _ZNSt3__115basic_streambufIcNS_11char_traitsIcEEE7seekposENS_4fposI9mbstate_tEEj;
    _ZNSt3__115basic_streambufIcNS_11char_traitsIcEEE7sungetcEv;
    _ZNSt3__115basic_streambufIcNS_11char_traitsIcEEE8in_availEv;
    _ZNSt3__115basic_streambufIcNS_11char_traitsIcEEE8overflowEi;
    _ZNSt3__115basic_streambufIcNS_11char_traitsIcEEE8pubimbueERKNS_6localeE;
    _ZNSt3__115basic_streambufIcNS_11char_traitsIcEEE9pbackfailEi;
    _ZNSt3__115basic_streambufIcNS_11char_traitsIcEEE9pubsetbufEPci;
    _ZNSt3__115basic_streambufIcNS_11char_traitsIcEEE9showmanycEv;
    _ZNSt3__115basic_streambufIcNS_11char_traitsIcEEE9sputbackcEc;
    _ZNSt3__115basic_streambufIcNS_11char_traitsIcEEE9underflowEv;
    _ZNSt3__115basic_streambufIcNS_11char_traitsIcEEEaSERKS3_;
    _ZNSt3__115basic_streambufIcNS_11char_traitsIcEEEC1ERKS3_;
    _ZNSt3__115basic_streambufIcNS_11char_traitsIcEEEC1Ev;
    _ZNSt3__115basic_streambufIcNS_11char_traitsIcEEEC2ERKS3_;
    _ZNSt3__115basic_streambufIcNS_11char_traitsIcEEEC2Ev;
    _ZNSt3__115basic_streambufIcNS_11char_traitsIcEEED0Ev;
    _ZNSt3__115basic_streambufIcNS_11char_traitsIcEEED1Ev;
    _ZNSt3__115basic_streambufIcNS_11char_traitsIcEEED2Ev;
    _ZNSt3__115basic_streambufIwNS_11char_traitsIwEEE10pubseekoffExNS_8ios_base7seekdirEj;
    _ZNSt3__115basic_streambufIwNS_11char_traitsIwEEE10pubseekposENS_4fposI9mbstate_tEEj;
    _ZNSt3__115basic_streambufIwNS_11char_traitsIwEEE4setgEPwS4_S4_;
    _ZNSt3__115basic_streambufIwNS_11char_traitsIwEEE4setpEPwS4_;
    _ZNSt3__115basic_streambufIwNS_11char_traitsIwEEE4swapERS3_;
    _ZNSt3__115basic_streambufIwNS_11char_traitsIwEEE4syncEv;
    _ZNSt3__115basic_streambufIwNS_11char_traitsIwEEE5gbumpEi;
    _ZNSt3__115basic_streambufIwNS_11char_traitsIwEEE5imbueERKNS_6localeE;
    _ZNSt3__115basic_streambufIwNS_11char_traitsIwEEE5pbumpEi;
    _ZNSt3__115basic_streambufIwNS_11char_traitsIwEEE5sgetcEv;
    _ZNSt3__115basic_streambufIwNS_11char_traitsIwEEE5sgetnEPwi;
    _ZNSt3__115basic_streambufIwNS_11char_traitsIwEEE5sputcEw;
    _ZNSt3__115basic_streambufIwNS_11char_traitsIwEEE5sputnEPKwi;
    _ZNSt3__115basic_streambufIwNS_11char_traitsIwEEE5uflowEv;
    _ZNSt3__115basic_streambufIwNS_11char_traitsIwEEE6sbumpcEv;
    _ZNSt3__115basic_streambufIwNS_11char_traitsIwEEE6setbufEPwi;
    _ZNSt3__115basic_streambufIwNS_11char_traitsIwEEE6snextcEv;
    _ZNSt3__115basic_streambufIwNS_11char_traitsIwEEE6xsgetnEPwi;
    _ZNSt3__115basic_streambufIwNS_11char_traitsIwEEE6xsputnEPKwi;
    _ZNSt3__115basic_streambufIwNS_11char_traitsIwEEE7pubsyncEv;
    _ZNSt3__115basic_streambufIwNS_11char_traitsIwEEE7seekoffExNS_8ios_base7seekdirEj;
    _ZNSt3__115basic_streambufIwNS_11char_traitsIwEEE7seekposENS_4fposI9mbstate_tEEj;
    _ZNSt3__115basic_streambufIwNS_11char_traitsIwEEE7sungetcEv;
    _ZNSt3__115basic_streambufIwNS_11char_traitsIwEEE8in_availEv;
    _ZNSt3__115basic_streambufIwNS_11char_traitsIwEEE8overflowEi;
    _ZNSt3__115basic_streambufIwNS_11char_traitsIwEEE8pubimbueERKNS_6localeE;
    _ZNSt3__115basic_streambufIwNS_11char_traitsIwEEE9pbackfailEi;
    _ZNSt3__115basic_streambufIwNS_11char_traitsIwEEE9pubsetbufEPwi;
    _ZNSt3__115basic_streambufIwNS_11char_traitsIwEEE9showmanycEv;
    _ZNSt3__115basic_streambufIwNS_11char_traitsIwEEE9sputbackcEw;
    _ZNSt3__115basic_streambufIwNS_11char_traitsIwEEE9underflowEv;
    _ZNSt3__115basic_streambufIwNS_11char_traitsIwEEEaSERKS3_;
    _ZNSt3__115basic_streambufIwNS_11char_traitsIwEEEC1ERKS3_;
    _ZNSt3__115basic_streambufIwNS_11char_traitsIwEEEC1Ev;
    _ZNSt3__115basic_streambufIwNS_11char_traitsIwEEEC2ERKS3_;
    _ZNSt3__115basic_streambufIwNS_11char_traitsIwEEEC2Ev;
    _ZNSt3__115basic_streambufIwNS_11char_traitsIwEEED0Ev;
    _ZNSt3__115basic_streambufIwNS_11char_traitsIwEEED1Ev;
    _ZNSt3__115basic_streambufIwNS_11char_traitsIwEEED2Ev;
    _ZNSt3__115__codecvt_utf16IDiLb0EED0Ev;
    _ZNSt3__115__codecvt_utf16IDiLb0EED2Ev;
    _ZNSt3__115__codecvt_utf16IDiLb1EED0Ev;
    _ZNSt3__115__codecvt_utf16IDiLb1EED2Ev;
    _ZNSt3__115__codecvt_utf16IDsLb0EED0Ev;
    _ZNSt3__115__codecvt_utf16IDsLb0EED2Ev;
    _ZNSt3__115__codecvt_utf16IDsLb1EED0Ev;
    _ZNSt3__115__codecvt_utf16IDsLb1EED2Ev;
    _ZNSt3__115__codecvt_utf16IwLb0EED0Ev;
    _ZNSt3__115__codecvt_utf16IwLb0EED2Ev;
    _ZNSt3__115__codecvt_utf16IwLb1EED0Ev;
    _ZNSt3__115__codecvt_utf16IwLb1EED2Ev;
    _ZNSt3__115future_categoryEv;
    _ZNSt3__115__get_classnameEPKcb;
    _ZNSt3__115__num_get_floatIdEET_PKcS3_Rj;
    _ZNSt3__115__num_get_floatIeEET_PKcS3_Rj;
    _ZNSt3__115__num_get_floatIfEET_PKcS3_Rj;
    _ZNSt3__115numpunct_bynameIcE6__initEPKc;
    _ZNSt3__115numpunct_bynameIcEC1EPKcj;
    _ZNSt3__115numpunct_bynameIcEC1ERKNS_12basic_stringIcNS_11char_traitsIcEENS_9allocatorIcEEEEj;
    _ZNSt3__115numpunct_bynameIcEC2EPKcj;
    _ZNSt3__115numpunct_bynameIcEC2ERKNS_12basic_stringIcNS_11char_traitsIcEENS_9allocatorIcEEEEj;
    _ZNSt3__115numpunct_bynameIcED0Ev;
    _ZNSt3__115numpunct_bynameIcED1Ev;
    _ZNSt3__115numpunct_bynameIcED2Ev;
    _ZNSt3__115numpunct_bynameIwE6__initEPKc;
    _ZNSt3__115numpunct_bynameIwEC1EPKcj;
    _ZNSt3__115numpunct_bynameIwEC1ERKNS_12basic_stringIcNS_11char_traitsIcEENS_9allocatorIcEEEEj;
    _ZNSt3__115numpunct_bynameIwEC2EPKcj;
    _ZNSt3__115numpunct_bynameIwEC2ERKNS_12basic_stringIcNS_11char_traitsIcEENS_9allocatorIcEEEEj;
    _ZNSt3__115numpunct_bynameIwED0Ev;
    _ZNSt3__115numpunct_bynameIwED1Ev;
    _ZNSt3__115numpunct_bynameIwED2Ev;
    _ZNSt3__115recursive_mutex4lockEv;
    _ZNSt3__115recursive_mutex6unlockEv;
    _ZNSt3__115recursive_mutex8try_lockEv;
    _ZNSt3__115recursive_mutexC1Ev;
    _ZNSt3__115recursive_mutexC2Ev;
    _ZNSt3__115recursive_mutexD1Ev;
    _ZNSt3__115recursive_mutexD2Ev;
    _ZNSt3__115system_categoryEv;
    _ZNSt3__115__thread_struct25notify_all_at_thread_exitEPNS_18condition_variableEPNS_5mutexE;
    _ZNSt3__115__thread_struct27__make_ready_at_thread_exitEPNS_17__assoc_sub_stateE;
    _ZNSt3__115__thread_structC1Ev;
    _ZNSt3__115__thread_structC2Ev;
    _ZNSt3__115__thread_structD1Ev;
    _ZNSt3__115__thread_structD2Ev;
    _ZNSt3__116__check_groupingERKNS_12basic_stringIcNS_11char_traitsIcEENS_9allocatorIcEEEEPjS8_Rj;
    _ZNSt3__116generic_categoryEv;
    _ZNSt3__116__narrow_to_utf8ILj16EED0Ev;
    _ZNSt3__116__narrow_to_utf8ILj16EED1Ev;
    _ZNSt3__116__narrow_to_utf8ILj16EED2Ev;
    _ZNSt3__116__narrow_to_utf8ILj32EED0Ev;
    _ZNSt3__116__narrow_to_utf8ILj32EED1Ev;
    _ZNSt3__116__narrow_to_utf8ILj32EED2Ev;
    _ZNSt3__117__assoc_sub_state10__sub_waitERNS_11unique_lockINS_5mutexEEE;
    _ZNSt3__117__assoc_sub_state12__make_readyEv;
    _ZNSt3__117__assoc_sub_state13set_exceptionESt13exception_ptr;
    _ZNSt3__117__assoc_sub_state16__on_zero_sharedEv;
    _ZNSt3__117__assoc_sub_state24set_value_at_thread_exitEv;
    _ZNSt3__117__assoc_sub_state28set_exception_at_thread_exitESt13exception_ptr;
    _ZNSt3__117__assoc_sub_state4copyEv;
    _ZNSt3__117__assoc_sub_state4waitEv;
    _ZNSt3__117__assoc_sub_state9__executeEv;
    _ZNSt3__117__assoc_sub_state9set_valueEv;
    _ZNSt3__117__assoc_sub_stateD0Ev;
    _ZNSt3__117__assoc_sub_stateD2Ev;
    _ZNSt3__117declare_reachableEPv;
    _ZNSt3__117iostream_categoryEv;
    _ZNSt3__117moneypunct_bynameIcLb0EE4initEPKc;
    _ZNSt3__117moneypunct_bynameIcLb1EE4initEPKc;
    _ZNSt3__117moneypunct_bynameIwLb0EE4initEPKc;
    _ZNSt3__117moneypunct_bynameIwLb1EE4initEPKc;
    _ZNSt3__117__widen_from_utf8ILj16EED0Ev;
    _ZNSt3__117__widen_from_utf8ILj16EED1Ev;
    _ZNSt3__117__widen_from_utf8ILj16EED2Ev;
    _ZNSt3__117__widen_from_utf8ILj32EED0Ev;
    _ZNSt3__117__widen_from_utf8ILj32EED1Ev;
    _ZNSt3__117__widen_from_utf8ILj32EED2Ev;
    _ZNSt3__118condition_variable10notify_allEv;
    _ZNSt3__118condition_variable10notify_oneEv;
    _ZNSt3__118condition_variable15__do_timed_waitERNS_11unique_lockINS_5mutexEEENS_6chrono10time_pointINS5_12system_clockENS5_8durationIxNS_5ratioILx1ELx1000000000EEEEEEE;
    _ZNSt3__118condition_variable4waitERNS_11unique_lockINS_5mutexEEE;
    _ZNSt3__118condition_variableD1Ev;
    _ZNSt3__118condition_variableD2Ev;
    _ZNSt3__118get_pointer_safetyEv;
    _ZNSt3__118__insertion_sort_3IRNS_6__lessIaaEEPaEEvT0_S5_T_;
    _ZNSt3__118__insertion_sort_3IRNS_6__lessIccEEPcEEvT0_S5_T_;
    _ZNSt3__118__insertion_sort_3IRNS_6__lessIddEEPdEEvT0_S5_T_;
    _ZNSt3__118__insertion_sort_3IRNS_6__lessIeeEEPeEEvT0_S5_T_;
    _ZNSt3__118__insertion_sort_3IRNS_6__lessIffEEPfEEvT0_S5_T_;
    _ZNSt3__118__insertion_sort_3IRNS_6__lessIhhEEPhEEvT0_S5_T_;
    _ZNSt3__118__insertion_sort_3IRNS_6__lessIiiEEPiEEvT0_S5_T_;
    _ZNSt3__118__insertion_sort_3IRNS_6__lessIjjEEPjEEvT0_S5_T_;
    _ZNSt3__118__insertion_sort_3IRNS_6__lessIllEEPlEEvT0_S5_T_;
    _ZNSt3__118__insertion_sort_3IRNS_6__lessImmEEPmEEvT0_S5_T_;
    _ZNSt3__118__insertion_sort_3IRNS_6__lessIssEEPsEEvT0_S5_T_;
    _ZNSt3__118__insertion_sort_3IRNS_6__lessIttEEPtEEvT0_S5_T_;
    _ZNSt3__118__insertion_sort_3IRNS_6__lessIwwEEPwEEvT0_S5_T_;
    _ZNSt3__118__insertion_sort_3IRNS_6__lessIxxEEPxEEvT0_S5_T_;
    _ZNSt3__118__insertion_sort_3IRNS_6__lessIyyEEPyEEvT0_S5_T_;
    _ZNSt3__118shared_timed_mutex11lock_sharedEv;
    _ZNSt3__118shared_timed_mutex13unlock_sharedEv;
    _ZNSt3__118shared_timed_mutex15try_lock_sharedEv;
    _ZNSt3__118shared_timed_mutex4lockEv;
    _ZNSt3__118shared_timed_mutex6unlockEv;
    _ZNSt3__118shared_timed_mutex8try_lockEv;
    _ZNSt3__118shared_timed_mutexC1Ev;
    _ZNSt3__118shared_timed_mutexC2Ev;
    _ZNSt3__118__time_get_storageIcE4initERKNS_5ctypeIcEE;
    _ZNSt3__118__time_get_storageIcE9__analyzeEcRKNS_5ctypeIcEE;
    _ZNSt3__118__time_get_storageIcEC1EPKc;
    _ZNSt3__118__time_get_storageIcEC1ERKNS_12basic_stringIcNS_11char_traitsIcEENS_9allocatorIcEEEE;
    _ZNSt3__118__time_get_storageIcEC2EPKc;
    _ZNSt3__118__time_get_storageIcEC2ERKNS_12basic_stringIcNS_11char_traitsIcEENS_9allocatorIcEEEE;
    _ZNSt3__118__time_get_storageIwE4initERKNS_5ctypeIwEE;
    _ZNSt3__118__time_get_storageIwE9__analyzeEcRKNS_5ctypeIwEE;
    _ZNSt3__118__time_get_storageIwEC1EPKc;
    _ZNSt3__118__time_get_storageIwEC1ERKNS_12basic_stringIcNS_11char_traitsIcEENS_9allocatorIcEEEE;
    _ZNSt3__118__time_get_storageIwEC2EPKc;
    _ZNSt3__118__time_get_storageIwEC2ERKNS_12basic_stringIcNS_11char_traitsIcEENS_9allocatorIcEEEE;
    _ZNSt3__119declare_no_pointersEPcj;
    _ZNSt3__119piecewise_constructE;
    _ZNSt3__119__shared_weak_count10__add_weakEv;
    _ZNSt3__119__shared_weak_count12__add_sharedEv;
    _ZNSt3__119__shared_weak_count14__release_weakEv;
    _ZNSt3__119__shared_weak_count16__release_sharedEv;
    _ZNSt3__119__shared_weak_count4lockEv;
    _ZNSt3__119__shared_weak_countD0Ev;
    _ZNSt3__119__shared_weak_countD1Ev;
    _ZNSt3__119__shared_weak_countD2Ev;
    _ZNSt3__119__start_std_streamsE;
    _ZNSt3__119__thread_local_dataEv;
    _ZNSt3__120__codecvt_utf8_utf16IDiED0Ev;
    _ZNSt3__120__codecvt_utf8_utf16IDiED2Ev;
    _ZNSt3__120__codecvt_utf8_utf16IDsED0Ev;
    _ZNSt3__120__codecvt_utf8_utf16IDsED2Ev;
    _ZNSt3__120__codecvt_utf8_utf16IwED0Ev;
    _ZNSt3__120__codecvt_utf8_utf16IwED2Ev;
    _ZNSt3__120__get_collation_nameEPKc;
    _ZNSt3__120__throw_system_errorEiPKc;
    _ZNSt3__120__time_get_c_storageIcEC2Ev;
    _ZNSt3__120__time_get_c_storageIwEC2Ev;
    _ZNSt3__121__murmur2_or_cityhashIjLj32EEclEPKvj;
    _ZNSt3__121recursive_timed_mutex4lockEv;
    _ZNSt3__121recursive_timed_mutex6unlockEv;
    _ZNSt3__121recursive_timed_mutex8try_lockEv;
    _ZNSt3__121recursive_timed_mutexC1Ev;
    _ZNSt3__121recursive_timed_mutexC2Ev;
    _ZNSt3__121recursive_timed_mutexD1Ev;
    _ZNSt3__121recursive_timed_mutexD2Ev;
    _ZNSt3__121__thread_specific_ptrINS_15__thread_structEE16__at_thread_exitEPv;
    _ZNSt3__121__thread_specific_ptrINS_15__thread_structEEC2Ev;
    _ZNSt3__121__thread_specific_ptrINS_15__thread_structEED2Ev;
    _ZNSt3__121__throw_runtime_errorEPKc;
    _ZNSt3__121undeclare_no_pointersEPcj;
    _ZNSt3__121__undeclare_reachableEPv;
    _ZNSt3__122__release_shared_countclEPNS_14__shared_countE;
    _ZNSt3__123mersenne_twister_engineIjLj32ELj624ELj397ELj31ELj2567483615ELj11ELj4294967295ELj7ELj2636928640ELj15ELj4022730752ELj18ELj1812433253EE4seedEj;
    _ZNSt3__123mersenne_twister_engineIjLj32ELj624ELj397ELj31ELj2567483615ELj11ELj4294967295ELj7ELj2636928640ELj15ELj4022730752ELj18ELj1812433253EEclEv;
    _ZNSt3__125notify_all_at_thread_exitERNS_18condition_variableENS_11unique_lockINS_5mutexEEE;
    _ZNSt3__125__num_get_signed_integralIlEET_PKcS3_Rji;
    _ZNSt3__125__num_get_signed_integralIxEET_PKcS3_Rji;
    _ZNSt3__127__insertion_sort_incompleteIRNS_6__lessIaaEEPaEEbT0_S5_T_;
    _ZNSt3__127__insertion_sort_incompleteIRNS_6__lessIccEEPcEEbT0_S5_T_;
    _ZNSt3__127__insertion_sort_incompleteIRNS_6__lessIddEEPdEEbT0_S5_T_;
    _ZNSt3__127__insertion_sort_incompleteIRNS_6__lessIeeEEPeEEbT0_S5_T_;
    _ZNSt3__127__insertion_sort_incompleteIRNS_6__lessIffEEPfEEbT0_S5_T_;
    _ZNSt3__127__insertion_sort_incompleteIRNS_6__lessIhhEEPhEEbT0_S5_T_;
    _ZNSt3__127__insertion_sort_incompleteIRNS_6__lessIiiEEPiEEbT0_S5_T_;
    _ZNSt3__127__insertion_sort_incompleteIRNS_6__lessIjjEEPjEEbT0_S5_T_;
    _ZNSt3__127__insertion_sort_incompleteIRNS_6__lessIllEEPlEEbT0_S5_T_;
    _ZNSt3__127__insertion_sort_incompleteIRNS_6__lessImmEEPmEEbT0_S5_T_;
    _ZNSt3__127__insertion_sort_incompleteIRNS_6__lessIssEEPsEEbT0_S5_T_;
    _ZNSt3__127__insertion_sort_incompleteIRNS_6__lessIttEEPtEEbT0_S5_T_;
    _ZNSt3__127__insertion_sort_incompleteIRNS_6__lessIwwEEPwEEbT0_S5_T_;
    _ZNSt3__127__insertion_sort_incompleteIRNS_6__lessIxxEEPxEEbT0_S5_T_;
    _ZNSt3__127__insertion_sort_incompleteIRNS_6__lessIyyEEPyEEbT0_S5_T_;
    _ZNSt3__127__num_get_unsigned_integralIjEET_PKcS3_Rji;
    _ZNSt3__127__num_get_unsigned_integralImEET_PKcS3_Rji;
    _ZNSt3__127__num_get_unsigned_integralItEET_PKcS3_Rji;
    _ZNSt3__127__num_get_unsigned_integralIyEET_PKcS3_Rji;
    _ZNSt3__13cinE;
    _ZNSt3__14cerrE;
    _ZNSt3__14clogE;
    _ZNSt3__14coutE;
    _ZNSt3__14stodERKNS_12basic_stringIcNS_11char_traitsIcEENS_9allocatorIcEEEEPj;
    _ZNSt3__14stodERKNS_12basic_stringIwNS_11char_traitsIwEENS_9allocatorIwEEEEPj;
    _ZNSt3__14stofERKNS_12basic_stringIcNS_11char_traitsIcEENS_9allocatorIcEEEEPj;
    _ZNSt3__14stofERKNS_12basic_stringIwNS_11char_traitsIwEENS_9allocatorIwEEEEPj;
    _ZNSt3__14stoiERKNS_12basic_stringIcNS_11char_traitsIcEENS_9allocatorIcEEEEPji;
    _ZNSt3__14stoiERKNS_12basic_stringIwNS_11char_traitsIwEENS_9allocatorIwEEEEPji;
    _ZNSt3__14stolERKNS_12basic_stringIcNS_11char_traitsIcEENS_9allocatorIcEEEEPji;
    _ZNSt3__14stolERKNS_12basic_stringIwNS_11char_traitsIwEENS_9allocatorIwEEEEPji;
    _ZNSt3__14wcinE;
    _ZNSt3__15alignEjjRPvRj;
    _ZNSt3__15ctypeIcE13classic_tableEv;
    _ZNSt3__15ctypeIcE2idE;
    _ZNSt3__15ctypeIcEC1EPKtbj;
    _ZNSt3__15ctypeIcEC2EPKtbj;
    _ZNSt3__15ctypeIcED0Ev;
    _ZNSt3__15ctypeIcED1Ev;
    _ZNSt3__15ctypeIcED2Ev;
    _ZNSt3__15ctypeIwE2idE;
    _ZNSt3__15ctypeIwED0Ev;
    _ZNSt3__15ctypeIwED1Ev;
    _ZNSt3__15ctypeIwED2Ev;
    _ZNSt3__15mutex4lockEv;
    _ZNSt3__15mutex6unlockEv;
    _ZNSt3__15mutex8try_lockEv;
    _ZNSt3__15mutexD1Ev;
    _ZNSt3__15mutexD2Ev;
    _ZNSt3__15stoldERKNS_12basic_stringIcNS_11char_traitsIcEENS_9allocatorIcEEEEPj;
    _ZNSt3__15stoldERKNS_12basic_stringIwNS_11char_traitsIwEENS_9allocatorIwEEEEPj;
    _ZNSt3__15stollERKNS_12basic_stringIcNS_11char_traitsIcEENS_9allocatorIcEEEEPji;
    _ZNSt3__15stollERKNS_12basic_stringIwNS_11char_traitsIwEENS_9allocatorIwEEEEPji;
    _ZNSt3__15stoulERKNS_12basic_stringIcNS_11char_traitsIcEENS_9allocatorIcEEEEPji;
    _ZNSt3__15stoulERKNS_12basic_stringIwNS_11char_traitsIwEENS_9allocatorIwEEEEPji;
    _ZNSt3__15wcerrE;
    _ZNSt3__15wclogE;
    _ZNSt3__15wcoutE;
    _ZNSt3__16chrono12steady_clock3nowEv;
    _ZNSt3__16chrono12steady_clock9is_steadyE;
    _ZNSt3__16chrono12system_clock11from_time_tEl;
    _ZNSt3__16chrono12system_clock3nowEv;
    _ZNSt3__16chrono12system_clock9is_steadyE;
    _ZNSt3__16chrono12system_clock9to_time_tERKNS0_10time_pointIS1_NS0_8durationIxNS_5ratioILx1ELx1000000EEEEEEE;
    _ZNSt3__16__clocEv;
    _ZNSt3__16futureIvE3getEv;
    _ZNSt3__16futureIvEC1EPNS_17__assoc_sub_stateE;
    _ZNSt3__16futureIvEC2EPNS_17__assoc_sub_stateE;
    _ZNSt3__16futureIvED1Ev;
    _ZNSt3__16futureIvED2Ev;
    _ZNSt3__16gslice6__initEj;
    _ZNSt3__16locale14__install_ctorERKS0_PNS0_5facetEl;
    _ZNSt3__16locale2id5__getEv;
    _ZNSt3__16locale2id6__initEv;
    _ZNSt3__16locale2id9__next_idE;
    _ZNSt3__16locale3allE;
    _ZNSt3__16locale4noneE;
    _ZNSt3__16locale4timeE;
    _ZNSt3__16locale5ctypeE;
    _ZNSt3__16locale5facet16__on_zero_sharedEv;
    _ZNSt3__16locale5facetD0Ev;
    _ZNSt3__16locale5facetD1Ev;
    _ZNSt3__16locale5facetD2Ev;
    _ZNSt3__16locale6globalERKS0_;
    _ZNSt3__16locale7classicEv;
    _ZNSt3__16locale7collateE;
    _ZNSt3__16locale7numericE;
    _ZNSt3__16locale8__globalEv;
    _ZNSt3__16locale8messagesE;
    _ZNSt3__16locale8monetaryE;
    _ZNSt3__16localeaSERKS0_;
    _ZNSt3__16localeC1EPKc;
    _ZNSt3__16localeC1ERKNS_12basic_stringIcNS_11char_traitsIcEENS_9allocatorIcEEEE;
    _ZNSt3__16localeC1ERKS0_;
    _ZNSt3__16localeC1ERKS0_PKci;
    _ZNSt3__16localeC1ERKS0_RKNS_12basic_stringIcNS_11char_traitsIcEENS_9allocatorIcEEEEi;
    _ZNSt3__16localeC1ERKS0_S2_i;
    _ZNSt3__16localeC1Ev;
    _ZNSt3__16localeC2EPKc;
    _ZNSt3__16localeC2ERKNS_12basic_stringIcNS_11char_traitsIcEENS_9allocatorIcEEEE;
    _ZNSt3__16localeC2ERKS0_;
    _ZNSt3__16localeC2ERKS0_PKci;
    _ZNSt3__16localeC2ERKS0_RKNS_12basic_stringIcNS_11char_traitsIcEENS_9allocatorIcEEEEi;
    _ZNSt3__16localeC2ERKS0_S2_i;
    _ZNSt3__16localeC2Ev;
    _ZNSt3__16localeD1Ev;
    _ZNSt3__16localeD2Ev;
    _ZNSt3__16__sortIRNS_6__lessIaaEEPaEEvT0_S5_T_;
    _ZNSt3__16__sortIRNS_6__lessIccEEPcEEvT0_S5_T_;
    _ZNSt3__16__sortIRNS_6__lessIddEEPdEEvT0_S5_T_;
    _ZNSt3__16__sortIRNS_6__lessIeeEEPeEEvT0_S5_T_;
    _ZNSt3__16__sortIRNS_6__lessIffEEPfEEvT0_S5_T_;
    _ZNSt3__16__sortIRNS_6__lessIhhEEPhEEvT0_S5_T_;
    _ZNSt3__16__sortIRNS_6__lessIiiEEPiEEvT0_S5_T_;
    _ZNSt3__16__sortIRNS_6__lessIjjEEPjEEvT0_S5_T_;
    _ZNSt3__16__sortIRNS_6__lessIllEEPlEEvT0_S5_T_;
    _ZNSt3__16__sortIRNS_6__lessImmEEPmEEvT0_S5_T_;
    _ZNSt3__16__sortIRNS_6__lessIssEEPsEEvT0_S5_T_;
    _ZNSt3__16__sortIRNS_6__lessIttEEPtEEvT0_S5_T_;
    _ZNSt3__16__sortIRNS_6__lessIwwEEPwEEvT0_S5_T_;
    _ZNSt3__16__sortIRNS_6__lessIxxEEPxEEvT0_S5_T_;
    _ZNSt3__16__sortIRNS_6__lessIyyEEPyEEvT0_S5_T_;
    _ZNSt3__16stoullERKNS_12basic_stringIcNS_11char_traitsIcEENS_9allocatorIcEEEEPji;
    _ZNSt3__16stoullERKNS_12basic_stringIwNS_11char_traitsIwEENS_9allocatorIwEEEEPji;
    _ZNSt3__16thread20hardware_concurrencyEv;
    _ZNSt3__16thread4joinEv;
    _ZNSt3__16thread6detachEv;
    _ZNSt3__16threadD1Ev;
    _ZNSt3__16threadD2Ev;
    _ZNSt3__17codecvtIcc9mbstate_tE2idE;
    _ZNSt3__17codecvtIcc9mbstate_tED0Ev;
    _ZNSt3__17codecvtIcc9mbstate_tED1Ev;
    _ZNSt3__17codecvtIcc9mbstate_tED2Ev;
    _ZNSt3__17codecvtIDic9mbstate_tE2idE;
    _ZNSt3__17codecvtIDic9mbstate_tED0Ev;
    _ZNSt3__17codecvtIDic9mbstate_tED1Ev;
    _ZNSt3__17codecvtIDic9mbstate_tED2Ev;
    _ZNSt3__17codecvtIDsc9mbstate_tE2idE;
    _ZNSt3__17codecvtIDsc9mbstate_tED0Ev;
    _ZNSt3__17codecvtIDsc9mbstate_tED1Ev;
    _ZNSt3__17codecvtIDsc9mbstate_tED2Ev;
    _ZNSt3__17codecvtIwc9mbstate_tE2idE;
    _ZNSt3__17codecvtIwc9mbstate_tEC1Ej;
    _ZNSt3__17codecvtIwc9mbstate_tEC1EPKcj;
    _ZNSt3__17codecvtIwc9mbstate_tEC2Ej;
    _ZNSt3__17codecvtIwc9mbstate_tEC2EPKcj;
    _ZNSt3__17codecvtIwc9mbstate_tED0Ev;
    _ZNSt3__17codecvtIwc9mbstate_tED1Ev;
    _ZNSt3__17codecvtIwc9mbstate_tED2Ev;
    _ZNSt3__17collateIcE2idE;
    _ZNSt3__17collateIcED0Ev;
    _ZNSt3__17collateIcED1Ev;
    _ZNSt3__17collateIcED2Ev;
    _ZNSt3__17collateIwE2idE;
    _ZNSt3__17collateIwED0Ev;
    _ZNSt3__17collateIwED1Ev;
    _ZNSt3__17collateIwED2Ev;
    _ZNSt3__17num_getIcNS_19istreambuf_iteratorIcNS_11char_traitsIcEEEEE2idE;
    _ZNSt3__17num_getIwNS_19istreambuf_iteratorIwNS_11char_traitsIwEEEEE2idE;
    _ZNSt3__17num_putIcNS_19ostreambuf_iteratorIcNS_11char_traitsIcEEEEE2idE;
    _ZNSt3__17num_putIwNS_19ostreambuf_iteratorIwNS_11char_traitsIwEEEEE2idE;
    _ZNSt3__17promiseIvE10get_futureEv;
    _ZNSt3__17promiseIvE13set_exceptionESt13exception_ptr;
    _ZNSt3__17promiseIvE24set_value_at_thread_exitEv;
    _ZNSt3__17promiseIvE28set_exception_at_thread_exitESt13exception_ptr;
    _ZNSt3__17promiseIvE9set_valueEv;
    _ZNSt3__17promiseIvEC1Ev;
    _ZNSt3__17promiseIvEC2Ev;
    _ZNSt3__17promiseIvED1Ev;
    _ZNSt3__17promiseIvED2Ev;
    _ZNSt3__17__sort3IRNS_6__lessIaaEEPaEEjT0_S5_S5_T_;
    _ZNSt3__17__sort3IRNS_6__lessIccEEPcEEjT0_S5_S5_T_;
    _ZNSt3__17__sort3IRNS_6__lessIddEEPdEEjT0_S5_S5_T_;
    _ZNSt3__17__sort3IRNS_6__lessIeeEEPeEEjT0_S5_S5_T_;
    _ZNSt3__17__sort3IRNS_6__lessIffEEPfEEjT0_S5_S5_T_;
    _ZNSt3__17__sort3IRNS_6__lessIhhEEPhEEjT0_S5_S5_T_;
    _ZNSt3__17__sort3IRNS_6__lessIiiEEPiEEjT0_S5_S5_T_;
    _ZNSt3__17__sort3IRNS_6__lessIjjEEPjEEjT0_S5_S5_T_;
    _ZNSt3__17__sort3IRNS_6__lessIllEEPlEEjT0_S5_S5_T_;
    _ZNSt3__17__sort3IRNS_6__lessImmEEPmEEjT0_S5_S5_T_;
    _ZNSt3__17__sort3IRNS_6__lessIssEEPsEEjT0_S5_S5_T_;
    _ZNSt3__17__sort3IRNS_6__lessIttEEPtEEjT0_S5_S5_T_;
    _ZNSt3__17__sort3IRNS_6__lessIwwEEPwEEjT0_S5_S5_T_;
    _ZNSt3__17__sort3IRNS_6__lessIxxEEPxEEjT0_S5_S5_T_;
    _ZNSt3__17__sort3IRNS_6__lessIyyEEPyEEjT0_S5_S5_T_;
    _ZNSt3__17__sort4IRNS_6__lessIaaEEPaEEjT0_S5_S5_S5_T_;
    _ZNSt3__17__sort4IRNS_6__lessIccEEPcEEjT0_S5_S5_S5_T_;
    _ZNSt3__17__sort4IRNS_6__lessIddEEPdEEjT0_S5_S5_S5_T_;
    _ZNSt3__17__sort4IRNS_6__lessIeeEEPeEEjT0_S5_S5_S5_T_;
    _ZNSt3__17__sort4IRNS_6__lessIffEEPfEEjT0_S5_S5_S5_T_;
    _ZNSt3__17__sort4IRNS_6__lessIhhEEPhEEjT0_S5_S5_S5_T_;
    _ZNSt3__17__sort4IRNS_6__lessIiiEEPiEEjT0_S5_S5_S5_T_;
    _ZNSt3__17__sort4IRNS_6__lessIjjEEPjEEjT0_S5_S5_S5_T_;
    _ZNSt3__17__sort4IRNS_6__lessIllEEPlEEjT0_S5_S5_S5_T_;
    _ZNSt3__17__sort4IRNS_6__lessImmEEPmEEjT0_S5_S5_S5_T_;
    _ZNSt3__17__sort4IRNS_6__lessIssEEPsEEjT0_S5_S5_S5_T_;
    _ZNSt3__17__sort4IRNS_6__lessIttEEPtEEjT0_S5_S5_S5_T_;
    _ZNSt3__17__sort4IRNS_6__lessIwwEEPwEEjT0_S5_S5_S5_T_;
    _ZNSt3__17__sort4IRNS_6__lessIxxEEPxEEjT0_S5_S5_S5_T_;
    _ZNSt3__17__sort4IRNS_6__lessIyyEEPyEEjT0_S5_S5_S5_T_;
    _ZNSt3__17__sort5IRNS_6__lessIaaEEPaEEjT0_S5_S5_S5_S5_T_;
    _ZNSt3__17__sort5IRNS_6__lessIccEEPcEEjT0_S5_S5_S5_S5_T_;
    _ZNSt3__17__sort5IRNS_6__lessIddEEPdEEjT0_S5_S5_S5_S5_T_;
    _ZNSt3__17__sort5IRNS_6__lessIeeEEPeEEjT0_S5_S5_S5_S5_T_;
    _ZNSt3__17__sort5IRNS_6__lessIffEEPfEEjT0_S5_S5_S5_S5_T_;
    _ZNSt3__17__sort5IRNS_6__lessIhhEEPhEEjT0_S5_S5_S5_S5_T_;
    _ZNSt3__17__sort5IRNS_6__lessIiiEEPiEEjT0_S5_S5_S5_S5_T_;
    _ZNSt3__17__sort5IRNS_6__lessIjjEEPjEEjT0_S5_S5_S5_S5_T_;
    _ZNSt3__17__sort5IRNS_6__lessIllEEPlEEjT0_S5_S5_S5_S5_T_;
    _ZNSt3__17__sort5IRNS_6__lessImmEEPmEEjT0_S5_S5_S5_S5_T_;
    _ZNSt3__17__sort5IRNS_6__lessIssEEPsEEjT0_S5_S5_S5_S5_T_;
    _ZNSt3__17__sort5IRNS_6__lessIttEEPtEEjT0_S5_S5_S5_S5_T_;
    _ZNSt3__17__sort5IRNS_6__lessIwwEEPwEEjT0_S5_S5_S5_S5_T_;
    _ZNSt3__17__sort5IRNS_6__lessIxxEEPxEEjT0_S5_S5_S5_S5_T_;
    _ZNSt3__17__sort5IRNS_6__lessIyyEEPyEEjT0_S5_S5_S5_S5_T_;
    _ZNSt3__18__c_node5__addEPNS_8__i_nodeE;
    _ZNSt3__18__c_nodeD0Ev;
    _ZNSt3__18__c_nodeD1Ev;
    _ZNSt3__18__c_nodeD2Ev;
    _ZNSt3__18__get_dbEv;
    _ZNSt3__18__i_nodeD1Ev;
    _ZNSt3__18__i_nodeD2Ev;
    _ZNSt3__18ios_base10floatfieldE;
    _ZNSt3__18ios_base10scientificE;
    _ZNSt3__18ios_base11adjustfieldE;
    _ZNSt3__18ios_base15sync_with_stdioEb;
    _ZNSt3__18ios_base16__call_callbacksENS0_5eventE;
    _ZNSt3__18ios_base17register_callbackEPFvNS0_5eventERS0_iEi;
    _ZNSt3__18ios_base2inE;
    _ZNSt3__18ios_base33__set_badbit_and_consider_rethrowEv;
    _ZNSt3__18ios_base34__set_failbit_and_consider_rethrowEv;
    _ZNSt3__18ios_base3appE;
    _ZNSt3__18ios_base3ateE;
    _ZNSt3__18ios_base3decE;
    _ZNSt3__18ios_base3hexE;
    _ZNSt3__18ios_base3octE;
    _ZNSt3__18ios_base3outE;
    _ZNSt3__18ios_base4InitC1Ev;
    _ZNSt3__18ios_base4InitC2Ev;
    _ZNSt3__18ios_base4InitD1Ev;
    _ZNSt3__18ios_base4InitD2Ev;
    _ZNSt3__18ios_base4initEPv;
    _ZNSt3__18ios_base4leftE;
    _ZNSt3__18ios_base4moveERS0_;
    _ZNSt3__18ios_base4swapERS0_;
    _ZNSt3__18ios_base5clearEj;
    _ZNSt3__18ios_base5fixedE;
    _ZNSt3__18ios_base5imbueERKNS_6localeE;
    _ZNSt3__18ios_base5iwordEi;
    _ZNSt3__18ios_base5pwordEi;
    _ZNSt3__18ios_base5rightE;
    _ZNSt3__18ios_base5truncE;
    _ZNSt3__18ios_base6badbitE;
    _ZNSt3__18ios_base6binaryE;
    _ZNSt3__18ios_base6eofbitE;
    _ZNSt3__18ios_base6skipwsE;
    _ZNSt3__18ios_base6xallocEv;
    _ZNSt3__18ios_base7copyfmtERKS0_;
    _ZNSt3__18ios_base7failbitE;
    _ZNSt3__18ios_base7failureC1EPKcRKNS_10error_codeE;
    _ZNSt3__18ios_base7failureC1ERKNS_12basic_stringIcNS_11char_traitsIcEENS_9allocatorIcEEEERKNS_10error_codeE;
    _ZNSt3__18ios_base7failureC2EPKcRKNS_10error_codeE;
    _ZNSt3__18ios_base7failureC2ERKNS_12basic_stringIcNS_11char_traitsIcEENS_9allocatorIcEEEERKNS_10error_codeE;
    _ZNSt3__18ios_base7failureD0Ev;
    _ZNSt3__18ios_base7failureD1Ev;
    _ZNSt3__18ios_base7failureD2Ev;
    _ZNSt3__18ios_base7goodbitE;
    _ZNSt3__18ios_base7showposE;
    _ZNSt3__18ios_base7unitbufE;
    _ZNSt3__18ios_base8internalE;
    _ZNSt3__18ios_base8showbaseE;
    _ZNSt3__18ios_base9basefieldE;
    _ZNSt3__18ios_base9boolalphaE;
    _ZNSt3__18ios_base9showpointE;
    _ZNSt3__18ios_base9uppercaseE;
    _ZNSt3__18ios_base9__xindex_E;
    _ZNSt3__18ios_baseD0Ev;
    _ZNSt3__18ios_baseD1Ev;
    _ZNSt3__18ios_baseD2Ev;
    _ZNSt3__18messagesIcE2idE;
    _ZNSt3__18messagesIwE2idE;
    _ZNSt3__18numpunctIcE2idE;
    _ZNSt3__18numpunctIcEC1Ej;
    _ZNSt3__18numpunctIcEC2Ej;
    _ZNSt3__18numpunctIcED0Ev;
    _ZNSt3__18numpunctIcED1Ev;
    _ZNSt3__18numpunctIcED2Ev;
    _ZNSt3__18numpunctIwE2idE;
    _ZNSt3__18numpunctIwEC1Ej;
    _ZNSt3__18numpunctIwEC2Ej;
    _ZNSt3__18numpunctIwED0Ev;
    _ZNSt3__18numpunctIwED1Ev;
    _ZNSt3__18numpunctIwED2Ev;
    _ZNSt3__18__rs_getEv;
    _ZNSt3__18__sp_mut4lockEv;
    _ZNSt3__18__sp_mut6unlockEv;
    _ZNSt3__18__sp_mutC2EPv;
    _ZNSt3__18time_getIcNS_19istreambuf_iteratorIcNS_11char_traitsIcEEEEE2idE;
    _ZNSt3__18time_getIwNS_19istreambuf_iteratorIwNS_11char_traitsIwEEEEE2idE;
    _ZNSt3__18time_putIcNS_19ostreambuf_iteratorIcNS_11char_traitsIcEEEEE2idE;
    _ZNSt3__18time_putIwNS_19ostreambuf_iteratorIwNS_11char_traitsIwEEEEE2idE;
    _ZNSt3__18valarrayIjE6resizeEjj;
    _ZNSt3__18valarrayIjEC1Ej;
    _ZNSt3__18valarrayIjEC2Ej;
    _ZNSt3__18valarrayIjED1Ev;
    _ZNSt3__18valarrayIjED2Ev;
    _ZNSt3__19basic_iosIcNS_11char_traitsIcEEE7copyfmtERKS3_;
    _ZNSt3__19basic_iosIcNS_11char_traitsIcEEED0Ev;
    _ZNSt3__19basic_iosIcNS_11char_traitsIcEEED1Ev;
    _ZNSt3__19basic_iosIcNS_11char_traitsIcEEED2Ev;
    _ZNSt3__19basic_iosIwNS_11char_traitsIwEEE7copyfmtERKS3_;
    _ZNSt3__19basic_iosIwNS_11char_traitsIwEEED0Ev;
    _ZNSt3__19basic_iosIwNS_11char_traitsIwEEED1Ev;
    _ZNSt3__19basic_iosIwNS_11char_traitsIwEEED2Ev;
    _ZNSt3__19money_getIcNS_19istreambuf_iteratorIcNS_11char_traitsIcEEEEE2idE;
    _ZNSt3__19money_getIcNS_19istreambuf_iteratorIcNS_11char_traitsIcEEEEE8__do_getERS4_S4_bRKNS_6localeEjRjRbRKNS_5ctypeIcEERNS_10unique_ptrIcPFvPvEEERPcSM_;
    _ZNSt3__19money_getIwNS_19istreambuf_iteratorIwNS_11char_traitsIwEEEEE2idE;
    _ZNSt3__19money_getIwNS_19istreambuf_iteratorIwNS_11char_traitsIwEEEEE8__do_getERS4_S4_bRKNS_6localeEjRjRbRKNS_5ctypeIwEERNS_10unique_ptrIwPFvPvEEERPwSM_;
    _ZNSt3__19money_putIcNS_19ostreambuf_iteratorIcNS_11char_traitsIcEEEEE2idE;
    _ZNSt3__19money_putIwNS_19ostreambuf_iteratorIwNS_11char_traitsIwEEEEE2idE;
    _ZNSt3__19__num_getIcE17__stage2_int_loopEciPcRS2_RjcRKNS_12basic_stringIcNS_11char_traitsIcEENS_9allocatorIcEEEEPjRSD_S2_;
    _ZNSt3__19__num_getIcE17__stage2_int_prepERNS_8ios_baseEPcRc;
    _ZNSt3__19__num_getIcE19__stage2_float_loopEcRbRcPcRS4_ccRKNS_12basic_stringIcNS_11char_traitsIcEENS_9allocatorIcEEEEPjRSE_RjS4_;
    _ZNSt3__19__num_getIcE19__stage2_float_prepERNS_8ios_baseEPcRcS5_;
    _ZNSt3__19__num_getIwE17__stage2_int_loopEwiPcRS2_RjwRKNS_12basic_stringIcNS_11char_traitsIcEENS_9allocatorIcEEEEPjRSD_Pw;
    _ZNSt3__19__num_getIwE17__stage2_int_prepERNS_8ios_baseEPwRw;
    _ZNSt3__19__num_getIwE19__stage2_float_loopEwRbRcPcRS4_wwRKNS_12basic_stringIcNS_11char_traitsIcEENS_9allocatorIcEEEEPjRSE_RjPw;
    _ZNSt3__19__num_getIwE19__stage2_float_prepERNS_8ios_baseEPwRwS5_;
    _ZNSt3__19__num_putIcE21__widen_and_group_intEPcS2_S2_S2_RS2_S3_RKNS_6localeE;
    _ZNSt3__19__num_putIcE23__widen_and_group_floatEPcS2_S2_S2_RS2_S3_RKNS_6localeE;
    _ZNSt3__19__num_putIwE21__widen_and_group_intEPcS2_S2_PwRS3_S4_RKNS_6localeE;
    _ZNSt3__19__num_putIwE23__widen_and_group_floatEPcS2_S2_PwRS3_S4_RKNS_6localeE;
    _ZNSt3__19strstreamD0Ev;
    _ZNSt3__19strstreamD1Ev;
    _ZNSt3__19strstreamD2Ev;
    _ZNSt3__19to_stringEd;
    _ZNSt3__19to_stringEe;
    _ZNSt3__19to_stringEf;
    _ZNSt3__19to_stringEg;
    _ZNSt3__19to_stringEi;
    _ZNSt3__19to_stringEj;
    _ZNSt3__19to_stringEl;
    _ZNSt3__19to_stringEm;
    _ZNSt3__19to_stringEx;
    _ZNSt3__19to_stringEy;
    _ZNSt3__1plIcNS_11char_traitsIcEENS_9allocatorIcEEEENS_12basic_stringIT_T0_T1_EEPKS6_RKS9_;
    _ZNSt3__1plIcNS_11char_traitsIcEENS_9allocatorIcEEEENS_12basic_stringIT_T0_T1_EERKS9_PKS6_;
    _ZSt17current_exceptionv;
    _ZSt17rethrow_exceptionSt13exception_ptr;
    _ZSt17__throw_bad_allocv;
    _ZSt18make_exception_ptrINSt3__112future_errorEESt13exception_ptrT_;
    _ZSt18uncaught_exceptionv;
    _ZSt7nothrow;
    _ZTCNSt3__110istrstreamE0_NS_13basic_istreamIcNS_11char_traitsIcEEEE;
    _ZTCNSt3__110ostrstreamE0_NS_13basic_ostreamIcNS_11char_traitsIcEEEE;
    _ZTCNSt3__114basic_iostreamIcNS_11char_traitsIcEEEE0_NS_13basic_istreamIcS2_EE;
    _ZTCNSt3__114basic_iostreamIcNS_11char_traitsIcEEEE8_NS_13basic_ostreamIcS2_EE;
    _ZTCNSt3__19strstreamE0_NS_13basic_istreamIcNS_11char_traitsIcEEEE;
    _ZTCNSt3__19strstreamE0_NS_14basic_iostreamIcNS_11char_traitsIcEEEE;
    _ZTCNSt3__19strstreamE8_NS_13basic_ostreamIcNS_11char_traitsIcEEEE;
    _ZThn8_NSt3__114basic_iostreamIcNS_11char_traitsIcEEED0Ev;
    _ZThn8_NSt3__114basic_iostreamIcNS_11char_traitsIcEEED1Ev;
    _ZThn8_NSt3__19strstreamD0Ev;
    _ZThn8_NSt3__19strstreamD1Ev;
    _ZTINSt12experimental19bad_optional_accessE;
    _ZTINSt3__110ctype_baseE;
    _ZTINSt3__110istrstreamE;
    _ZTINSt3__110money_baseE;
    _ZTINSt3__110moneypunctIcLb0EEE;
    _ZTINSt3__110moneypunctIcLb1EEE;
    _ZTINSt3__110moneypunctIwLb0EEE;
    _ZTINSt3__110moneypunctIwLb1EEE;
    _ZTINSt3__110ostrstreamE;
    _ZTINSt3__110__time_getE;
    _ZTINSt3__110__time_putE;
    _ZTINSt3__111__money_getIcEE;
    _ZTINSt3__111__money_getIwEE;
    _ZTINSt3__111__money_putIcEE;
    _ZTINSt3__111__money_putIwEE;
    _ZTINSt3__111regex_errorE;
    _ZTINSt3__112bad_weak_ptrE;
    _ZTINSt3__112codecvt_baseE;
    _ZTINSt3__112ctype_bynameIcEE;
    _ZTINSt3__112ctype_bynameIwEE;
    _ZTINSt3__112future_errorE;
    _ZTINSt3__112strstreambufE;
    _ZTINSt3__112system_errorE;
    _ZTINSt3__113basic_istreamIcNS_11char_traitsIcEEEE;
    _ZTINSt3__113basic_istreamIwNS_11char_traitsIwEEEE;
    _ZTINSt3__113basic_ostreamIcNS_11char_traitsIcEEEE;
    _ZTINSt3__113basic_ostreamIwNS_11char_traitsIwEEEE;
    _ZTINSt3__113messages_baseE;
    _ZTINSt3__114basic_iostreamIcNS_11char_traitsIcEEEE;
    _ZTINSt3__114codecvt_bynameIcc9mbstate_tEE;
    _ZTINSt3__114codecvt_bynameIDic9mbstate_tEE;
    _ZTINSt3__114codecvt_bynameIDsc9mbstate_tEE;
    _ZTINSt3__114codecvt_bynameIwc9mbstate_tEE;
    _ZTINSt3__114__codecvt_utf8IDiEE;
    _ZTINSt3__114__codecvt_utf8IDsEE;
    _ZTINSt3__114__codecvt_utf8IwEE;
    _ZTINSt3__114collate_bynameIcEE;
    _ZTINSt3__114collate_bynameIwEE;
    _ZTINSt3__114error_categoryE;
    _ZTINSt3__114__num_get_baseE;
    _ZTINSt3__114__num_put_baseE;
    _ZTINSt3__114__shared_countE;
    _ZTINSt3__115basic_streambufIcNS_11char_traitsIcEEEE;
    _ZTINSt3__115basic_streambufIwNS_11char_traitsIwEEEE;
    _ZTINSt3__115__codecvt_utf16IDiLb0EEE;
    _ZTINSt3__115__codecvt_utf16IDiLb1EEE;
    _ZTINSt3__115__codecvt_utf16IDsLb0EEE;
    _ZTINSt3__115__codecvt_utf16IDsLb1EEE;
    _ZTINSt3__115__codecvt_utf16IwLb0EEE;
    _ZTINSt3__115__codecvt_utf16IwLb1EEE;
    _ZTINSt3__115messages_bynameIcEE;
    _ZTINSt3__115messages_bynameIwEE;
    _ZTINSt3__115numpunct_bynameIcEE;
    _ZTINSt3__115numpunct_bynameIwEE;
    _ZTINSt3__115time_get_bynameIcNS_19istreambuf_iteratorIcNS_11char_traitsIcEEEEEE;
    _ZTINSt3__115time_get_bynameIwNS_19istreambuf_iteratorIwNS_11char_traitsIwEEEEEE;
    _ZTINSt3__115time_put_bynameIcNS_19ostreambuf_iteratorIcNS_11char_traitsIcEEEEEE;
    _ZTINSt3__115time_put_bynameIwNS_19ostreambuf_iteratorIwNS_11char_traitsIwEEEEEE;
    _ZTINSt3__116__narrow_to_utf8ILj16EEE;
    _ZTINSt3__116__narrow_to_utf8ILj32EEE;
    _ZTINSt3__117__assoc_sub_stateE;
    _ZTINSt3__117moneypunct_bynameIcLb0EEE;
    _ZTINSt3__117moneypunct_bynameIcLb1EEE;
    _ZTINSt3__117moneypunct_bynameIwLb0EEE;
    _ZTINSt3__117moneypunct_bynameIwLb1EEE;
    _ZTINSt3__117__widen_from_utf8ILj16EEE;
    _ZTINSt3__117__widen_from_utf8ILj32EEE;
    _ZTINSt3__118__time_get_storageIcEE;
    _ZTINSt3__118__time_get_storageIwEE;
    _ZTINSt3__119__shared_weak_countE;
    _ZTINSt3__120__codecvt_utf8_utf16IDiEE;
    _ZTINSt3__120__codecvt_utf8_utf16IDsEE;
    _ZTINSt3__120__codecvt_utf8_utf16IwEE;
    _ZTINSt3__120__time_get_c_storageIcEE;
    _ZTINSt3__120__time_get_c_storageIwEE;
    _ZTINSt3__15ctypeIcEE;
    _ZTINSt3__15ctypeIwEE;
    _ZTINSt3__16locale5facetE;
    _ZTINSt3__17codecvtIcc9mbstate_tEE;
    _ZTINSt3__17codecvtIDic9mbstate_tEE;
    _ZTINSt3__17codecvtIDsc9mbstate_tEE;
    _ZTINSt3__17codecvtIwc9mbstate_tEE;
    _ZTINSt3__17collateIcEE;
    _ZTINSt3__17collateIwEE;
    _ZTINSt3__17num_getIcNS_19istreambuf_iteratorIcNS_11char_traitsIcEEEEEE;
    _ZTINSt3__17num_getIwNS_19istreambuf_iteratorIwNS_11char_traitsIwEEEEEE;
    _ZTINSt3__17num_putIcNS_19ostreambuf_iteratorIcNS_11char_traitsIcEEEEEE;
    _ZTINSt3__17num_putIwNS_19ostreambuf_iteratorIwNS_11char_traitsIwEEEEEE;
    _ZTINSt3__18__c_nodeE;
    _ZTINSt3__18ios_base7failureE;
    _ZTINSt3__18ios_baseE;
    _ZTINSt3__18messagesIcEE;
    _ZTINSt3__18messagesIwEE;
    _ZTINSt3__18numpunctIcEE;
    _ZTINSt3__18numpunctIwEE;
    _ZTINSt3__18time_getIcNS_19istreambuf_iteratorIcNS_11char_traitsIcEEEEEE;
    _ZTINSt3__18time_getIwNS_19istreambuf_iteratorIwNS_11char_traitsIwEEEEEE;
    _ZTINSt3__18time_putIcNS_19ostreambuf_iteratorIcNS_11char_traitsIcEEEEEE;
    _ZTINSt3__18time_putIwNS_19ostreambuf_iteratorIwNS_11char_traitsIwEEEEEE;
    _ZTINSt3__19basic_iosIcNS_11char_traitsIcEEEE;
    _ZTINSt3__19basic_iosIwNS_11char_traitsIwEEEE;
    _ZTINSt3__19money_getIcNS_19istreambuf_iteratorIcNS_11char_traitsIcEEEEEE;
    _ZTINSt3__19money_getIwNS_19istreambuf_iteratorIwNS_11char_traitsIwEEEEEE;
    _ZTINSt3__19money_putIcNS_19ostreambuf_iteratorIcNS_11char_traitsIcEEEEEE;
    _ZTINSt3__19money_putIwNS_19ostreambuf_iteratorIwNS_11char_traitsIwEEEEEE;
    _ZTINSt3__19__num_getIcEE;
    _ZTINSt3__19__num_getIwEE;
    _ZTINSt3__19__num_putIcEE;
    _ZTINSt3__19__num_putIwEE;
    _ZTINSt3__19strstreamE;
    _ZTINSt3__19time_baseE;
    _ZTISt16nested_exception;
    _ZTSNSt12experimental19bad_optional_accessE;
    _ZTSNSt3__110ctype_baseE;
    _ZTSNSt3__110istrstreamE;
    _ZTSNSt3__110money_baseE;
    _ZTSNSt3__110moneypunctIcLb0EEE;
    _ZTSNSt3__110moneypunctIcLb1EEE;
    _ZTSNSt3__110moneypunctIwLb0EEE;
    _ZTSNSt3__110moneypunctIwLb1EEE;
    _ZTSNSt3__110ostrstreamE;
    _ZTSNSt3__110__time_getE;
    _ZTSNSt3__110__time_putE;
    _ZTSNSt3__111__money_getIcEE;
    _ZTSNSt3__111__money_getIwEE;
    _ZTSNSt3__111__money_putIcEE;
    _ZTSNSt3__111__money_putIwEE;
    _ZTSNSt3__111regex_errorE;
    _ZTSNSt3__112bad_weak_ptrE;
    _ZTSNSt3__112codecvt_baseE;
    _ZTSNSt3__112ctype_bynameIcEE;
    _ZTSNSt3__112ctype_bynameIwEE;
    _ZTSNSt3__112future_errorE;
    _ZTSNSt3__112strstreambufE;
    _ZTSNSt3__112system_errorE;
    _ZTSNSt3__113basic_istreamIcNS_11char_traitsIcEEEE;
    _ZTSNSt3__113basic_istreamIwNS_11char_traitsIwEEEE;
    _ZTSNSt3__113basic_ostreamIcNS_11char_traitsIcEEEE;
    _ZTSNSt3__113basic_ostreamIwNS_11char_traitsIwEEEE;
    _ZTSNSt3__113messages_baseE;
    _ZTSNSt3__114basic_iostreamIcNS_11char_traitsIcEEEE;
    _ZTSNSt3__114codecvt_bynameIcc9mbstate_tEE;
    _ZTSNSt3__114codecvt_bynameIDic9mbstate_tEE;
    _ZTSNSt3__114codecvt_bynameIDsc9mbstate_tEE;
    _ZTSNSt3__114codecvt_bynameIwc9mbstate_tEE;
    _ZTSNSt3__114__codecvt_utf8IDiEE;
    _ZTSNSt3__114__codecvt_utf8IDsEE;
    _ZTSNSt3__114__codecvt_utf8IwEE;
    _ZTSNSt3__114collate_bynameIcEE;
    _ZTSNSt3__114collate_bynameIwEE;
    _ZTSNSt3__114error_categoryE;
    _ZTSNSt3__114__num_get_baseE;
    _ZTSNSt3__114__num_put_baseE;
    _ZTSNSt3__114__shared_countE;
    _ZTSNSt3__115basic_streambufIcNS_11char_traitsIcEEEE;
    _ZTSNSt3__115basic_streambufIwNS_11char_traitsIwEEEE;
    _ZTSNSt3__115__codecvt_utf16IDiLb0EEE;
    _ZTSNSt3__115__codecvt_utf16IDiLb1EEE;
    _ZTSNSt3__115__codecvt_utf16IDsLb0EEE;
    _ZTSNSt3__115__codecvt_utf16IDsLb1EEE;
    _ZTSNSt3__115__codecvt_utf16IwLb0EEE;
    _ZTSNSt3__115__codecvt_utf16IwLb1EEE;
    _ZTSNSt3__115messages_bynameIcEE;
    _ZTSNSt3__115messages_bynameIwEE;
    _ZTSNSt3__115numpunct_bynameIcEE;
    _ZTSNSt3__115numpunct_bynameIwEE;
    _ZTSNSt3__115time_get_bynameIcNS_19istreambuf_iteratorIcNS_11char_traitsIcEEEEEE;
    _ZTSNSt3__115time_get_bynameIwNS_19istreambuf_iteratorIwNS_11char_traitsIwEEEEEE;
    _ZTSNSt3__115time_put_bynameIcNS_19ostreambuf_iteratorIcNS_11char_traitsIcEEEEEE;
    _ZTSNSt3__115time_put_bynameIwNS_19ostreambuf_iteratorIwNS_11char_traitsIwEEEEEE;
    _ZTSNSt3__116__narrow_to_utf8ILj16EEE;
    _ZTSNSt3__116__narrow_to_utf8ILj32EEE;
    _ZTSNSt3__117__assoc_sub_stateE;
    _ZTSNSt3__117moneypunct_bynameIcLb0EEE;
    _ZTSNSt3__117moneypunct_bynameIcLb1EEE;
    _ZTSNSt3__117moneypunct_bynameIwLb0EEE;
    _ZTSNSt3__117moneypunct_bynameIwLb1EEE;
    _ZTSNSt3__117__widen_from_utf8ILj16EEE;
    _ZTSNSt3__117__widen_from_utf8ILj32EEE;
    _ZTSNSt3__118__time_get_storageIcEE;
    _ZTSNSt3__118__time_get_storageIwEE;
    _ZTSNSt3__119__shared_weak_countE;
    _ZTSNSt3__120__codecvt_utf8_utf16IDiEE;
    _ZTSNSt3__120__codecvt_utf8_utf16IDsEE;
    _ZTSNSt3__120__codecvt_utf8_utf16IwEE;
    _ZTSNSt3__120__time_get_c_storageIcEE;
    _ZTSNSt3__120__time_get_c_storageIwEE;
    _ZTSNSt3__15ctypeIcEE;
    _ZTSNSt3__15ctypeIwEE;
    _ZTSNSt3__16locale5facetE;
    _ZTSNSt3__17codecvtIcc9mbstate_tEE;
    _ZTSNSt3__17codecvtIDic9mbstate_tEE;
    _ZTSNSt3__17codecvtIDsc9mbstate_tEE;
    _ZTSNSt3__17codecvtIwc9mbstate_tEE;
    _ZTSNSt3__17collateIcEE;
    _ZTSNSt3__17collateIwEE;
    _ZTSNSt3__17num_getIcNS_19istreambuf_iteratorIcNS_11char_traitsIcEEEEEE;
    _ZTSNSt3__17num_getIwNS_19istreambuf_iteratorIwNS_11char_traitsIwEEEEEE;
    _ZTSNSt3__17num_putIcNS_19ostreambuf_iteratorIcNS_11char_traitsIcEEEEEE;
    _ZTSNSt3__17num_putIwNS_19ostreambuf_iteratorIwNS_11char_traitsIwEEEEEE;
    _ZTSNSt3__18__c_nodeE;
    _ZTSNSt3__18ios_base7failureE;
    _ZTSNSt3__18ios_baseE;
    _ZTSNSt3__18messagesIcEE;
    _ZTSNSt3__18messagesIwEE;
    _ZTSNSt3__18numpunctIcEE;
    _ZTSNSt3__18numpunctIwEE;
    _ZTSNSt3__18time_getIcNS_19istreambuf_iteratorIcNS_11char_traitsIcEEEEEE;
    _ZTSNSt3__18time_getIwNS_19istreambuf_iteratorIwNS_11char_traitsIwEEEEEE;
    _ZTSNSt3__18time_putIcNS_19ostreambuf_iteratorIcNS_11char_traitsIcEEEEEE;
    _ZTSNSt3__18time_putIwNS_19ostreambuf_iteratorIwNS_11char_traitsIwEEEEEE;
    _ZTSNSt3__19basic_iosIcNS_11char_traitsIcEEEE;
    _ZTSNSt3__19basic_iosIwNS_11char_traitsIwEEEE;
    _ZTSNSt3__19money_getIcNS_19istreambuf_iteratorIcNS_11char_traitsIcEEEEEE;
    _ZTSNSt3__19money_getIwNS_19istreambuf_iteratorIwNS_11char_traitsIwEEEEEE;
    _ZTSNSt3__19money_putIcNS_19ostreambuf_iteratorIcNS_11char_traitsIcEEEEEE;
    _ZTSNSt3__19money_putIwNS_19ostreambuf_iteratorIwNS_11char_traitsIwEEEEEE;
    _ZTSNSt3__19__num_getIcEE;
    _ZTSNSt3__19__num_getIwEE;
    _ZTSNSt3__19__num_putIcEE;
    _ZTSNSt3__19__num_putIwEE;
    _ZTSNSt3__19strstreamE;
    _ZTSNSt3__19time_baseE;
    _ZTSSt16nested_exception;
    _ZTTNSt3__110istrstreamE;
    _ZTTNSt3__110ostrstreamE;
    _ZTTNSt3__113basic_istreamIcNS_11char_traitsIcEEEE;
    _ZTTNSt3__113basic_istreamIwNS_11char_traitsIwEEEE;
    _ZTTNSt3__113basic_ostreamIcNS_11char_traitsIcEEEE;
    _ZTTNSt3__113basic_ostreamIwNS_11char_traitsIwEEEE;
    _ZTTNSt3__114basic_iostreamIcNS_11char_traitsIcEEEE;
    _ZTTNSt3__19strstreamE;
    _ZTv0_n12_NSt3__110istrstreamD0Ev;
    _ZTv0_n12_NSt3__110istrstreamD1Ev;
    _ZTv0_n12_NSt3__110ostrstreamD0Ev;
    _ZTv0_n12_NSt3__110ostrstreamD1Ev;
    _ZTv0_n12_NSt3__113basic_istreamIcNS_11char_traitsIcEEED0Ev;
    _ZTv0_n12_NSt3__113basic_istreamIcNS_11char_traitsIcEEED1Ev;
    _ZTv0_n12_NSt3__113basic_istreamIwNS_11char_traitsIwEEED0Ev;
    _ZTv0_n12_NSt3__113basic_istreamIwNS_11char_traitsIwEEED1Ev;
    _ZTv0_n12_NSt3__113basic_ostreamIcNS_11char_traitsIcEEED0Ev;
    _ZTv0_n12_NSt3__113basic_ostreamIcNS_11char_traitsIcEEED1Ev;
    _ZTv0_n12_NSt3__113basic_ostreamIwNS_11char_traitsIwEEED0Ev;
    _ZTv0_n12_NSt3__113basic_ostreamIwNS_11char_traitsIwEEED1Ev;
    _ZTv0_n12_NSt3__114basic_iostreamIcNS_11char_traitsIcEEED0Ev;
    _ZTv0_n12_NSt3__114basic_iostreamIcNS_11char_traitsIcEEED1Ev;
    _ZTv0_n12_NSt3__19strstreamD0Ev;
    _ZTv0_n12_NSt3__19strstreamD1Ev;
    _ZTVNSt12experimental19bad_optional_accessE;
    _ZTVNSt3__110istrstreamE;
    _ZTVNSt3__110moneypunctIcLb0EEE;
    _ZTVNSt3__110moneypunctIcLb1EEE;
    _ZTVNSt3__110moneypunctIwLb0EEE;
    _ZTVNSt3__110moneypunctIwLb1EEE;
    _ZTVNSt3__110ostrstreamE;
    _ZTVNSt3__111regex_errorE;
    _ZTVNSt3__112bad_weak_ptrE;
    _ZTVNSt3__112ctype_bynameIcEE;
    _ZTVNSt3__112ctype_bynameIwEE;
    _ZTVNSt3__112future_errorE;
    _ZTVNSt3__112strstreambufE;
    _ZTVNSt3__112system_errorE;
    _ZTVNSt3__113basic_istreamIcNS_11char_traitsIcEEEE;
    _ZTVNSt3__113basic_istreamIwNS_11char_traitsIwEEEE;
    _ZTVNSt3__113basic_ostreamIcNS_11char_traitsIcEEEE;
    _ZTVNSt3__113basic_ostreamIwNS_11char_traitsIwEEEE;
    _ZTVNSt3__114basic_iostreamIcNS_11char_traitsIcEEEE;
    _ZTVNSt3__114codecvt_bynameIcc9mbstate_tEE;
    _ZTVNSt3__114codecvt_bynameIDic9mbstate_tEE;
    _ZTVNSt3__114codecvt_bynameIDsc9mbstate_tEE;
    _ZTVNSt3__114codecvt_bynameIwc9mbstate_tEE;
    _ZTVNSt3__114__codecvt_utf8IDiEE;
    _ZTVNSt3__114__codecvt_utf8IDsEE;
    _ZTVNSt3__114__codecvt_utf8IwEE;
    _ZTVNSt3__114collate_bynameIcEE;
    _ZTVNSt3__114collate_bynameIwEE;
    _ZTVNSt3__114error_categoryE;
    _ZTVNSt3__114__shared_countE;
    _ZTVNSt3__115basic_streambufIcNS_11char_traitsIcEEEE;
    _ZTVNSt3__115basic_streambufIwNS_11char_traitsIwEEEE;
    _ZTVNSt3__115__codecvt_utf16IDiLb0EEE;
    _ZTVNSt3__115__codecvt_utf16IDiLb1EEE;
    _ZTVNSt3__115__codecvt_utf16IDsLb0EEE;
    _ZTVNSt3__115__codecvt_utf16IDsLb1EEE;
    _ZTVNSt3__115__codecvt_utf16IwLb0EEE;
    _ZTVNSt3__115__codecvt_utf16IwLb1EEE;
    _ZTVNSt3__115messages_bynameIcEE;
    _ZTVNSt3__115messages_bynameIwEE;
    _ZTVNSt3__115numpunct_bynameIcEE;
    _ZTVNSt3__115numpunct_bynameIwEE;
    _ZTVNSt3__115time_get_bynameIcNS_19istreambuf_iteratorIcNS_11char_traitsIcEEEEEE;
    _ZTVNSt3__115time_get_bynameIwNS_19istreambuf_iteratorIwNS_11char_traitsIwEEEEEE;
    _ZTVNSt3__115time_put_bynameIcNS_19ostreambuf_iteratorIcNS_11char_traitsIcEEEEEE;
    _ZTVNSt3__115time_put_bynameIwNS_19ostreambuf_iteratorIwNS_11char_traitsIwEEEEEE;
    _ZTVNSt3__116__narrow_to_utf8ILj16EEE;
    _ZTVNSt3__116__narrow_to_utf8ILj32EEE;
    _ZTVNSt3__117__assoc_sub_stateE;
    _ZTVNSt3__117moneypunct_bynameIcLb0EEE;
    _ZTVNSt3__117moneypunct_bynameIcLb1EEE;
    _ZTVNSt3__117moneypunct_bynameIwLb0EEE;
    _ZTVNSt3__117moneypunct_bynameIwLb1EEE;
    _ZTVNSt3__117__widen_from_utf8ILj16EEE;
    _ZTVNSt3__117__widen_from_utf8ILj32EEE;
    _ZTVNSt3__119__shared_weak_countE;
    _ZTVNSt3__120__codecvt_utf8_utf16IDiEE;
    _ZTVNSt3__120__codecvt_utf8_utf16IDsEE;
    _ZTVNSt3__120__codecvt_utf8_utf16IwEE;
    _ZTVNSt3__120__time_get_c_storageIcEE;
    _ZTVNSt3__120__time_get_c_storageIwEE;
    _ZTVNSt3__15ctypeIcEE;
    _ZTVNSt3__15ctypeIwEE;
    _ZTVNSt3__16locale5facetE;
    _ZTVNSt3__17codecvtIcc9mbstate_tEE;
    _ZTVNSt3__17codecvtIDic9mbstate_tEE;
    _ZTVNSt3__17codecvtIDsc9mbstate_tEE;
    _ZTVNSt3__17codecvtIwc9mbstate_tEE;
    _ZTVNSt3__17collateIcEE;
    _ZTVNSt3__17collateIwEE;
    _ZTVNSt3__17num_getIcNS_19istreambuf_iteratorIcNS_11char_traitsIcEEEEEE;
    _ZTVNSt3__17num_getIwNS_19istreambuf_iteratorIwNS_11char_traitsIwEEEEEE;
    _ZTVNSt3__17num_putIcNS_19ostreambuf_iteratorIcNS_11char_traitsIcEEEEEE;
    _ZTVNSt3__17num_putIwNS_19ostreambuf_iteratorIwNS_11char_traitsIwEEEEEE;
    _ZTVNSt3__18__c_nodeE;
    _ZTVNSt3__18ios_base7failureE;
    _ZTVNSt3__18ios_baseE;
    _ZTVNSt3__18messagesIcEE;
    _ZTVNSt3__18messagesIwEE;
    _ZTVNSt3__18numpunctIcEE;
    _ZTVNSt3__18numpunctIwEE;
    _ZTVNSt3__18time_getIcNS_19istreambuf_iteratorIcNS_11char_traitsIcEEEEEE;
    _ZTVNSt3__18time_getIwNS_19istreambuf_iteratorIwNS_11char_traitsIwEEEEEE;
    _ZTVNSt3__18time_putIcNS_19ostreambuf_iteratorIcNS_11char_traitsIcEEEEEE;
    _ZTVNSt3__18time_putIwNS_19ostreambuf_iteratorIwNS_11char_traitsIwEEEEEE;
    _ZTVNSt3__19basic_iosIcNS_11char_traitsIcEEEE;
    _ZTVNSt3__19basic_iosIwNS_11char_traitsIwEEEE;
    _ZTVNSt3__19money_getIcNS_19istreambuf_iteratorIcNS_11char_traitsIcEEEEEE;
    _ZTVNSt3__19money_getIwNS_19istreambuf_iteratorIwNS_11char_traitsIwEEEEEE;
    _ZTVNSt3__19money_putIcNS_19ostreambuf_iteratorIcNS_11char_traitsIcEEEEEE;
    _ZTVNSt3__19money_putIwNS_19ostreambuf_iteratorIwNS_11char_traitsIwEEEEEE;
    _ZTVNSt3__19strstreamE;
    _ZTVSt16nested_exception;
    _ZZNKSt3__120__time_get_c_storageIcE3__cEvE1s;
    _ZZNKSt3__120__time_get_c_storageIcE3__rEvE1s;
    _ZZNKSt3__120__time_get_c_storageIcE3__xEvE1s;
    _ZZNKSt3__120__time_get_c_storageIcE3__XEvE1s;
    _ZZNKSt3__120__time_get_c_storageIcE7__am_pmEvE5am_pm;
    _ZZNKSt3__120__time_get_c_storageIcE7__weeksEvE5weeks;
    _ZZNKSt3__120__time_get_c_storageIcE8__monthsEvE6months;
    _ZZNKSt3__120__time_get_c_storageIwE3__cEvE1s;
    _ZZNKSt3__120__time_get_c_storageIwE3__rEvE1s;
    _ZZNKSt3__120__time_get_c_storageIwE3__xEvE1s;
    _ZZNKSt3__120__time_get_c_storageIwE3__XEvE1s;
    _ZZNKSt3__120__time_get_c_storageIwE7__am_pmEvE5am_pm;
    _ZZNKSt3__120__time_get_c_storageIwE7__weeksEvE5weeks;
    _ZZNKSt3__120__time_get_c_storageIwE8__monthsEvE6months;
    atan2l;
    coshl;
    cosl;
    expl;
    hypotl;
    log2;
    logbl;
    logl;
    nan;
    nexttoward;
    scalbln;
    scalblnf;
    scalblnl;
    sinhl;
    sinl;
    sqrtl;
    strtold_l;
    strtoll_l;
    strtoull_l;
    uselocale;

    /* ToDo: missing from 32-bit */
    _ZL10assert_rtnPKcS0_iS0_;
    _ZL17ctype_android_tab;
    _ZL25default_terminate_handlerv;
    _ZL26default_unexpected_handlerv;
    _ZL5cause;
    _ZN10__cxxabiv114call_terminateEbP21_Unwind_Control_Block;
    _ZN10__cxxabiv116__enum_type_infoD0Ev;
    _ZN10__cxxabiv116__enum_type_infoD1Ev;
    _ZN10__cxxabiv116__enum_type_infoD2Ev;
    _ZN10__cxxabiv116__shim_type_infoD0Ev;
    _ZN10__cxxabiv116__shim_type_infoD1Ev;
    _ZN10__cxxabiv116__shim_type_infoD2Ev;
    _ZN10__cxxabiv117__array_type_infoD0Ev;
    _ZN10__cxxabiv117__array_type_infoD1Ev;
    _ZN10__cxxabiv117__array_type_infoD2Ev;
    _ZN10__cxxabiv117__class_type_infoD0Ev;
    _ZN10__cxxabiv117__class_type_infoD1Ev;
    _ZN10__cxxabiv117__class_type_infoD2Ev;
    _ZN10__cxxabiv117__pbase_type_infoD0Ev;
    _ZN10__cxxabiv117__pbase_type_infoD1Ev;
    _ZN10__cxxabiv117__pbase_type_infoD2Ev;
    _ZN10__cxxabiv118readEncodedPointerEPPKhh;
    _ZN10__cxxabiv119__pointer_type_infoD0Ev;
    _ZN10__cxxabiv119__pointer_type_infoD1Ev;
    _ZN10__cxxabiv119__pointer_type_infoD2Ev;
    _ZN10__cxxabiv120__function_type_infoD0Ev;
    _ZN10__cxxabiv120__function_type_infoD1Ev;
    _ZN10__cxxabiv120__function_type_infoD2Ev;
    _ZN10__cxxabiv120__si_class_type_infoD0Ev;
    _ZN10__cxxabiv120__si_class_type_infoD1Ev;
    _ZN10__cxxabiv120__si_class_type_infoD2Ev;
    _ZN10__cxxabiv121__vmi_class_type_infoD0Ev;
    _ZN10__cxxabiv121__vmi_class_type_infoD1Ev;
    _ZN10__cxxabiv121__vmi_class_type_infoD2Ev;
    _ZN10__cxxabiv123__fundamental_type_infoD0Ev;
    _ZN10__cxxabiv123__fundamental_type_infoD1Ev;
    _ZN10__cxxabiv123__fundamental_type_infoD2Ev;
    _ZN10__cxxabiv127dependent_exception_cleanupE19_Unwind_Reason_CodeP21_Unwind_Control_Block;
    _ZN10__cxxabiv129__pointer_to_member_type_infoD0Ev;
    _ZN10__cxxabiv129__pointer_to_member_type_infoD1Ev;
    _ZN10__cxxabiv129__pointer_to_member_type_infoD2Ev;
    _ZN10__cxxabiv1L22exception_cleanup_funcE19_Unwind_Reason_CodeP21_Unwind_Control_Block;
    _ZN10__cxxabiv1L7do_freeEPv;
    _ZN10__cxxabiv1L9do_mallocEj;
    _ZN9libunwind12UnwindCursorINS_17LocalAddressSpaceENS_13Registers_armEE10saveVFPAsXEv;
    _ZN9libunwind12UnwindCursorINS_17LocalAddressSpaceENS_13Registers_armEE11getFloatRegEi;
    _ZN9libunwind12UnwindCursorINS_17LocalAddressSpaceENS_13Registers_armEE11setFloatRegEiy;
    _ZN9libunwind12UnwindCursorINS_17LocalAddressSpaceENS_13Registers_armEE13isSignalFrameEv;
    _ZN9libunwind12UnwindCursorINS_17LocalAddressSpaceENS_13Registers_armEE13validFloatRegEi;
    _ZN9libunwind12UnwindCursorINS_17LocalAddressSpaceENS_13Registers_armEE15getFunctionNameEPcjPj;
    _ZN9libunwind12UnwindCursorINS_17LocalAddressSpaceENS_13Registers_armEE15getRegisterNameEi;
    _ZN9libunwind12UnwindCursorINS_17LocalAddressSpaceENS_13Registers_armEE23getInfoFromEHABISectionEjRKNS_18UnwindInfoSectionsE;
    _ZN9libunwind12UnwindCursorINS_17LocalAddressSpaceENS_13Registers_armEE24setInfoBasedOnIPRegisterEb;
    _ZN9libunwind12UnwindCursorINS_17LocalAddressSpaceENS_13Registers_armEE4stepEv;
    _ZN9libunwind12UnwindCursorINS_17LocalAddressSpaceENS_13Registers_armEE6getRegEi;
    _ZN9libunwind12UnwindCursorINS_17LocalAddressSpaceENS_13Registers_armEE6jumptoEv;
    _ZN9libunwind12UnwindCursorINS_17LocalAddressSpaceENS_13Registers_armEE6setRegEij;
    _ZN9libunwind12UnwindCursorINS_17LocalAddressSpaceENS_13Registers_armEE7getInfoEP15unw_proc_info_t;
    _ZN9libunwind12UnwindCursorINS_17LocalAddressSpaceENS_13Registers_armEE8validRegEi;
    _ZN9libunwind12UnwindCursorINS_17LocalAddressSpaceENS_13Registers_armEED0Ev;
    _ZN9libunwind13Registers_arm12restoreiWMMXEPy;
    _ZN9libunwind13Registers_arm12restoreVFPv3EPy;
    _ZN9libunwind13Registers_arm16saveiWMMXControlEPj;
    _ZN9libunwind13Registers_arm16saveVFPWithFSTMDEPy;
    _ZN9libunwind13Registers_arm16saveVFPWithFSTMXEPy;
    _ZN9libunwind13Registers_arm19restoreiWMMXControlEPj;
    _ZN9libunwind13Registers_arm19restoreVFPWithFLDMDEPy;
    _ZN9libunwind13Registers_arm19restoreVFPWithFLDMXEPy;
    _ZN9libunwind13Registers_arm20restoreCoreAndJumpToEv;
    _ZN9libunwind13Registers_arm26restoreSavedFloatRegistersEv;
    _ZN9libunwind13Registers_arm9saveiWMMXEPy;
    _ZN9libunwind13Registers_arm9saveVFPv3EPy;
    _ZN9libunwind17LocalAddressSpace17sThisAddressSpaceE;
    _ZN9libunwind20AbstractUnwindCursorD2Ev;
    _ZNK10__cxxabiv116__enum_type_info9can_catchEPKNS_16__shim_type_infoERPv;
    _ZNK10__cxxabiv116__shim_type_info5noop1Ev;
    _ZNK10__cxxabiv116__shim_type_info5noop2Ev;
    _ZNK10__cxxabiv117__array_type_info9can_catchEPKNS_16__shim_type_infoERPv;
    _ZNK10__cxxabiv117__class_type_info16search_above_dstEPNS_19__dynamic_cast_infoEPKvS4_ib;
    _ZNK10__cxxabiv117__class_type_info16search_below_dstEPNS_19__dynamic_cast_infoEPKvib;
    _ZNK10__cxxabiv117__class_type_info24process_found_base_classEPNS_19__dynamic_cast_infoEPvi;
    _ZNK10__cxxabiv117__class_type_info27has_unambiguous_public_baseEPNS_19__dynamic_cast_infoEPvi;
    _ZNK10__cxxabiv117__class_type_info29process_static_type_above_dstEPNS_19__dynamic_cast_infoEPKvS4_i;
    _ZNK10__cxxabiv117__class_type_info29process_static_type_below_dstEPNS_19__dynamic_cast_infoEPKvi;
    _ZNK10__cxxabiv117__class_type_info9can_catchEPKNS_16__shim_type_infoERPv;
    _ZNK10__cxxabiv117__pbase_type_info9can_catchEPKNS_16__shim_type_infoERPv;
    _ZNK10__cxxabiv119__pointer_type_info9can_catchEPKNS_16__shim_type_infoERPv;
    _ZNK10__cxxabiv120__function_type_info9can_catchEPKNS_16__shim_type_infoERPv;
    _ZNK10__cxxabiv120__si_class_type_info16search_above_dstEPNS_19__dynamic_cast_infoEPKvS4_ib;
    _ZNK10__cxxabiv120__si_class_type_info16search_below_dstEPNS_19__dynamic_cast_infoEPKvib;
    _ZNK10__cxxabiv120__si_class_type_info27has_unambiguous_public_baseEPNS_19__dynamic_cast_infoEPvi;
    _ZNK10__cxxabiv121__vmi_class_type_info16search_above_dstEPNS_19__dynamic_cast_infoEPKvS4_ib;
    _ZNK10__cxxabiv121__vmi_class_type_info16search_below_dstEPNS_19__dynamic_cast_infoEPKvib;
    _ZNK10__cxxabiv121__vmi_class_type_info27has_unambiguous_public_baseEPNS_19__dynamic_cast_infoEPvi;
    _ZNK10__cxxabiv122__base_class_type_info16search_above_dstEPNS_19__dynamic_cast_infoEPKvS4_ib;
    _ZNK10__cxxabiv122__base_class_type_info16search_below_dstEPNS_19__dynamic_cast_infoEPKvib;
    _ZNK10__cxxabiv122__base_class_type_info27has_unambiguous_public_baseEPNS_19__dynamic_cast_infoEPvi;
    _ZNK10__cxxabiv123__fundamental_type_info9can_catchEPKNS_16__shim_type_infoERPv;
    _ZNKSt3__110moneypunctIcLb0EE10neg_formatEv;
    _ZNKSt3__110moneypunctIcLb0EE10pos_formatEv;
    _ZNKSt3__110moneypunctIcLb0EE11curr_symbolEv;
    _ZNKSt3__110moneypunctIcLb0EE11frac_digitsEv;
    _ZNKSt3__110moneypunctIcLb0EE13decimal_pointEv;
    _ZNKSt3__110moneypunctIcLb0EE13negative_signEv;
    _ZNKSt3__110moneypunctIcLb0EE13positive_signEv;
    _ZNKSt3__110moneypunctIcLb0EE13thousands_sepEv;
    _ZNKSt3__110moneypunctIcLb0EE8groupingEv;
    _ZNKSt3__110moneypunctIcLb1EE10neg_formatEv;
    _ZNKSt3__110moneypunctIcLb1EE10pos_formatEv;
    _ZNKSt3__110moneypunctIcLb1EE11curr_symbolEv;
    _ZNKSt3__110moneypunctIcLb1EE11frac_digitsEv;
    _ZNKSt3__110moneypunctIcLb1EE13decimal_pointEv;
    _ZNKSt3__110moneypunctIcLb1EE13negative_signEv;
    _ZNKSt3__110moneypunctIcLb1EE13positive_signEv;
    _ZNKSt3__110moneypunctIcLb1EE13thousands_sepEv;
    _ZNKSt3__110moneypunctIcLb1EE8groupingEv;
    _ZNKSt3__110moneypunctIwLb0EE10neg_formatEv;
    _ZNKSt3__110moneypunctIwLb0EE10pos_formatEv;
    _ZNKSt3__110moneypunctIwLb0EE11curr_symbolEv;
    _ZNKSt3__110moneypunctIwLb0EE11frac_digitsEv;
    _ZNKSt3__110moneypunctIwLb0EE13decimal_pointEv;
    _ZNKSt3__110moneypunctIwLb0EE13negative_signEv;
    _ZNKSt3__110moneypunctIwLb0EE13positive_signEv;
    _ZNKSt3__110moneypunctIwLb0EE13thousands_sepEv;
    _ZNKSt3__110moneypunctIwLb0EE8groupingEv;
    _ZNKSt3__110moneypunctIwLb1EE10neg_formatEv;
    _ZNKSt3__110moneypunctIwLb1EE10pos_formatEv;
    _ZNKSt3__110moneypunctIwLb1EE11curr_symbolEv;
    _ZNKSt3__110moneypunctIwLb1EE11frac_digitsEv;
    _ZNKSt3__110moneypunctIwLb1EE13decimal_pointEv;
    _ZNKSt3__110moneypunctIwLb1EE13negative_signEv;
    _ZNKSt3__110moneypunctIwLb1EE13positive_signEv;
    _ZNKSt3__110moneypunctIwLb1EE13thousands_sepEv;
    _ZNKSt3__110moneypunctIwLb1EE8groupingEv;
    _ZNKSt3__111__libcpp_db15__find_iteratorEPKv;
    _ZNKSt3__112basic_stringIcNS_11char_traitsIcEENS_9allocatorIcEEE12find_last_ofEcj;
    _ZNKSt3__112basic_stringIcNS_11char_traitsIcEENS_9allocatorIcEEE12find_last_ofEPKcj;
    _ZNKSt3__112basic_stringIcNS_11char_traitsIcEENS_9allocatorIcEEE12find_last_ofERKS5_j;
    _ZNKSt3__112basic_stringIcNS_11char_traitsIcEENS_9allocatorIcEEE12__invariantsEv;
    _ZNKSt3__112basic_stringIcNS_11char_traitsIcEENS_9allocatorIcEEE13find_first_ofEcj;
    _ZNKSt3__112basic_stringIcNS_11char_traitsIcEENS_9allocatorIcEEE13find_first_ofEPKcj;
    _ZNKSt3__112basic_stringIcNS_11char_traitsIcEENS_9allocatorIcEEE13find_first_ofERKS5_j;
    _ZNKSt3__112basic_stringIcNS_11char_traitsIcEENS_9allocatorIcEEE13get_allocatorEv;
    _ZNKSt3__112basic_stringIcNS_11char_traitsIcEENS_9allocatorIcEEE13__get_pointerEv;
    _ZNKSt3__112basic_stringIcNS_11char_traitsIcEENS_9allocatorIcEEE14__get_long_capEv;
    _ZNKSt3__112basic_stringIcNS_11char_traitsIcEENS_9allocatorIcEEE15__get_long_sizeEv;
    _ZNKSt3__112basic_stringIcNS_11char_traitsIcEENS_9allocatorIcEEE16find_last_not_ofEcj;
    _ZNKSt3__112basic_stringIcNS_11char_traitsIcEENS_9allocatorIcEEE16find_last_not_ofEPKcj;
    _ZNKSt3__112basic_stringIcNS_11char_traitsIcEENS_9allocatorIcEEE16find_last_not_ofERKS5_j;
    _ZNKSt3__112basic_stringIcNS_11char_traitsIcEENS_9allocatorIcEEE16__get_short_sizeEv;
    _ZNKSt3__112basic_stringIcNS_11char_traitsIcEENS_9allocatorIcEEE17find_first_not_ofEcj;
    _ZNKSt3__112basic_stringIcNS_11char_traitsIcEENS_9allocatorIcEEE17find_first_not_ofEPKcj;
    _ZNKSt3__112basic_stringIcNS_11char_traitsIcEENS_9allocatorIcEEE17find_first_not_ofERKS5_j;
    _ZNKSt3__112basic_stringIcNS_11char_traitsIcEENS_9allocatorIcEEE18__get_long_pointerEv;
    _ZNKSt3__112basic_stringIcNS_11char_traitsIcEENS_9allocatorIcEEE19__get_short_pointerEv;
    _ZNKSt3__112basic_stringIcNS_11char_traitsIcEENS_9allocatorIcEEE3endEv;
    _ZNKSt3__112basic_stringIcNS_11char_traitsIcEENS_9allocatorIcEEE4backEv;
    _ZNKSt3__112basic_stringIcNS_11char_traitsIcEENS_9allocatorIcEEE4cendEv;
    _ZNKSt3__112basic_stringIcNS_11char_traitsIcEENS_9allocatorIcEEE4dataEv;
    _ZNKSt3__112basic_stringIcNS_11char_traitsIcEENS_9allocatorIcEEE4findEPKcj;
    _ZNKSt3__112basic_stringIcNS_11char_traitsIcEENS_9allocatorIcEEE4findERKS5_j;
    _ZNKSt3__112basic_stringIcNS_11char_traitsIcEENS_9allocatorIcEEE4rendEv;
    _ZNKSt3__112basic_stringIcNS_11char_traitsIcEENS_9allocatorIcEEE4sizeEv;
    _ZNKSt3__112basic_stringIcNS_11char_traitsIcEENS_9allocatorIcEEE5beginEv;
    _ZNKSt3__112basic_stringIcNS_11char_traitsIcEENS_9allocatorIcEEE5crendEv;
    _ZNKSt3__112basic_stringIcNS_11char_traitsIcEENS_9allocatorIcEEE5c_strEv;
    _ZNKSt3__112basic_stringIcNS_11char_traitsIcEENS_9allocatorIcEEE5emptyEv;
    _ZNKSt3__112basic_stringIcNS_11char_traitsIcEENS_9allocatorIcEEE5frontEv;
    _ZNKSt3__112basic_stringIcNS_11char_traitsIcEENS_9allocatorIcEEE5rfindEPKcj;
    _ZNKSt3__112basic_stringIcNS_11char_traitsIcEENS_9allocatorIcEEE5rfindERKS5_j;
    _ZNKSt3__112basic_stringIcNS_11char_traitsIcEENS_9allocatorIcEEE6cbeginEv;
    _ZNKSt3__112basic_stringIcNS_11char_traitsIcEENS_9allocatorIcEEE6lengthEv;
    _ZNKSt3__112basic_stringIcNS_11char_traitsIcEENS_9allocatorIcEEE6rbeginEv;
    _ZNKSt3__112basic_stringIcNS_11char_traitsIcEENS_9allocatorIcEEE6substrEjj;
    _ZNKSt3__112basic_stringIcNS_11char_traitsIcEENS_9allocatorIcEEE7__allocEv;
    _ZNKSt3__112basic_stringIcNS_11char_traitsIcEENS_9allocatorIcEEE7compareEjjRKS5_;
    _ZNKSt3__112basic_stringIcNS_11char_traitsIcEENS_9allocatorIcEEE7compareERKS5_;
    _ZNKSt3__112basic_stringIcNS_11char_traitsIcEENS_9allocatorIcEEE7crbeginEv;
    _ZNKSt3__112basic_stringIcNS_11char_traitsIcEENS_9allocatorIcEEE8capacityEv;
    _ZNKSt3__112basic_stringIcNS_11char_traitsIcEENS_9allocatorIcEEE8max_sizeEv;
    _ZNKSt3__112basic_stringIcNS_11char_traitsIcEENS_9allocatorIcEEE9__is_longEv;
    _ZNKSt3__112basic_stringIcNS_11char_traitsIcEENS_9allocatorIcEEEixEj;
    _ZNKSt3__112basic_stringIwNS_11char_traitsIwEENS_9allocatorIwEEE12find_last_ofEPKwj;
    _ZNKSt3__112basic_stringIwNS_11char_traitsIwEENS_9allocatorIwEEE12find_last_ofERKS5_j;
    _ZNKSt3__112basic_stringIwNS_11char_traitsIwEENS_9allocatorIwEEE12find_last_ofEwj;
    _ZNKSt3__112basic_stringIwNS_11char_traitsIwEENS_9allocatorIwEEE12__invariantsEv;
    _ZNKSt3__112basic_stringIwNS_11char_traitsIwEENS_9allocatorIwEEE13find_first_ofEPKwj;
    _ZNKSt3__112basic_stringIwNS_11char_traitsIwEENS_9allocatorIwEEE13find_first_ofERKS5_j;
    _ZNKSt3__112basic_stringIwNS_11char_traitsIwEENS_9allocatorIwEEE13find_first_ofEwj;
    _ZNKSt3__112basic_stringIwNS_11char_traitsIwEENS_9allocatorIwEEE13get_allocatorEv;
    _ZNKSt3__112basic_stringIwNS_11char_traitsIwEENS_9allocatorIwEEE13__get_pointerEv;
    _ZNKSt3__112basic_stringIwNS_11char_traitsIwEENS_9allocatorIwEEE14__get_long_capEv;
    _ZNKSt3__112basic_stringIwNS_11char_traitsIwEENS_9allocatorIwEEE15__get_long_sizeEv;
    _ZNKSt3__112basic_stringIwNS_11char_traitsIwEENS_9allocatorIwEEE16find_last_not_ofEPKwj;
    _ZNKSt3__112basic_stringIwNS_11char_traitsIwEENS_9allocatorIwEEE16find_last_not_ofERKS5_j;
    _ZNKSt3__112basic_stringIwNS_11char_traitsIwEENS_9allocatorIwEEE16find_last_not_ofEwj;
    _ZNKSt3__112basic_stringIwNS_11char_traitsIwEENS_9allocatorIwEEE16__get_short_sizeEv;
    _ZNKSt3__112basic_stringIwNS_11char_traitsIwEENS_9allocatorIwEEE17find_first_not_ofEPKwj;
    _ZNKSt3__112basic_stringIwNS_11char_traitsIwEENS_9allocatorIwEEE17find_first_not_ofERKS5_j;
    _ZNKSt3__112basic_stringIwNS_11char_traitsIwEENS_9allocatorIwEEE17find_first_not_ofEwj;
    _ZNKSt3__112basic_stringIwNS_11char_traitsIwEENS_9allocatorIwEEE18__get_long_pointerEv;
    _ZNKSt3__112basic_stringIwNS_11char_traitsIwEENS_9allocatorIwEEE19__get_short_pointerEv;
    _ZNKSt3__112basic_stringIwNS_11char_traitsIwEENS_9allocatorIwEEE3endEv;
    _ZNKSt3__112basic_stringIwNS_11char_traitsIwEENS_9allocatorIwEEE4backEv;
    _ZNKSt3__112basic_stringIwNS_11char_traitsIwEENS_9allocatorIwEEE4cendEv;
    _ZNKSt3__112basic_stringIwNS_11char_traitsIwEENS_9allocatorIwEEE4dataEv;
    _ZNKSt3__112basic_stringIwNS_11char_traitsIwEENS_9allocatorIwEEE4findEPKwj;
    _ZNKSt3__112basic_stringIwNS_11char_traitsIwEENS_9allocatorIwEEE4findERKS5_j;
    _ZNKSt3__112basic_stringIwNS_11char_traitsIwEENS_9allocatorIwEEE4rendEv;
    _ZNKSt3__112basic_stringIwNS_11char_traitsIwEENS_9allocatorIwEEE4sizeEv;
    _ZNKSt3__112basic_stringIwNS_11char_traitsIwEENS_9allocatorIwEEE5beginEv;
    _ZNKSt3__112basic_stringIwNS_11char_traitsIwEENS_9allocatorIwEEE5crendEv;
    _ZNKSt3__112basic_stringIwNS_11char_traitsIwEENS_9allocatorIwEEE5c_strEv;
    _ZNKSt3__112basic_stringIwNS_11char_traitsIwEENS_9allocatorIwEEE5emptyEv;
    _ZNKSt3__112basic_stringIwNS_11char_traitsIwEENS_9allocatorIwEEE5frontEv;
    _ZNKSt3__112basic_stringIwNS_11char_traitsIwEENS_9allocatorIwEEE5rfindEPKwj;
    _ZNKSt3__112basic_stringIwNS_11char_traitsIwEENS_9allocatorIwEEE5rfindERKS5_j;
    _ZNKSt3__112basic_stringIwNS_11char_traitsIwEENS_9allocatorIwEEE6cbeginEv;
    _ZNKSt3__112basic_stringIwNS_11char_traitsIwEENS_9allocatorIwEEE6lengthEv;
    _ZNKSt3__112basic_stringIwNS_11char_traitsIwEENS_9allocatorIwEEE6rbeginEv;
    _ZNKSt3__112basic_stringIwNS_11char_traitsIwEENS_9allocatorIwEEE6substrEjj;
    _ZNKSt3__112basic_stringIwNS_11char_traitsIwEENS_9allocatorIwEEE7__allocEv;
    _ZNKSt3__112basic_stringIwNS_11char_traitsIwEENS_9allocatorIwEEE7compareEjjRKS5_;
    _ZNKSt3__112basic_stringIwNS_11char_traitsIwEENS_9allocatorIwEEE7compareERKS5_;
    _ZNKSt3__112basic_stringIwNS_11char_traitsIwEENS_9allocatorIwEEE7crbeginEv;
    _ZNKSt3__112basic_stringIwNS_11char_traitsIwEENS_9allocatorIwEEE8capacityEv;
    _ZNKSt3__112basic_stringIwNS_11char_traitsIwEENS_9allocatorIwEEE8max_sizeEv;
    _ZNKSt3__112basic_stringIwNS_11char_traitsIwEENS_9allocatorIwEEE9__is_longEv;
    _ZNKSt3__112basic_stringIwNS_11char_traitsIwEENS_9allocatorIwEEEixEj;
    _ZNKSt3__112__do_message7messageEi;
    _ZNKSt3__113basic_istreamIcNS_11char_traitsIcEEE6gcountEv;
    _ZNKSt3__113basic_istreamIcNS_11char_traitsIcEEE6sentrycvbEv;
    _ZNKSt3__113basic_istreamIwNS_11char_traitsIwEEE6gcountEv;
    _ZNKSt3__113basic_istreamIwNS_11char_traitsIwEEE6sentrycvbEv;
    _ZNKSt3__113basic_ostreamIcNS_11char_traitsIcEEE6sentrycvbEv;
    _ZNKSt3__113basic_ostreamIwNS_11char_traitsIwEEE6sentrycvbEv;
    _ZNKSt3__115basic_streambufIcNS_11char_traitsIcEEE4gptrEv;
    _ZNKSt3__115basic_streambufIcNS_11char_traitsIcEEE4pptrEv;
    _ZNKSt3__115basic_streambufIcNS_11char_traitsIcEEE5ebackEv;
    _ZNKSt3__115basic_streambufIcNS_11char_traitsIcEEE5egptrEv;
    _ZNKSt3__115basic_streambufIcNS_11char_traitsIcEEE5epptrEv;
    _ZNKSt3__115basic_streambufIcNS_11char_traitsIcEEE5pbaseEv;
    _ZNKSt3__115basic_streambufIwNS_11char_traitsIwEEE4gptrEv;
    _ZNKSt3__115basic_streambufIwNS_11char_traitsIwEEE4pptrEv;
    _ZNKSt3__115basic_streambufIwNS_11char_traitsIwEEE5ebackEv;
    _ZNKSt3__115basic_streambufIwNS_11char_traitsIwEEE5egptrEv;
    _ZNKSt3__115basic_streambufIwNS_11char_traitsIwEEE5epptrEv;
    _ZNKSt3__115basic_streambufIwNS_11char_traitsIwEEE5pbaseEv;
    _ZNKSt3__115time_get_bynameIcNS_19istreambuf_iteratorIcNS_11char_traitsIcEEEEE13do_date_orderEv;
    _ZNKSt3__115time_get_bynameIcNS_19istreambuf_iteratorIcNS_11char_traitsIcEEEEE3__cEv;
    _ZNKSt3__115time_get_bynameIcNS_19istreambuf_iteratorIcNS_11char_traitsIcEEEEE3__rEv;
    _ZNKSt3__115time_get_bynameIcNS_19istreambuf_iteratorIcNS_11char_traitsIcEEEEE3__xEv;
    _ZNKSt3__115time_get_bynameIcNS_19istreambuf_iteratorIcNS_11char_traitsIcEEEEE3__XEv;
    _ZNKSt3__115time_get_bynameIcNS_19istreambuf_iteratorIcNS_11char_traitsIcEEEEE7__am_pmEv;
    _ZNKSt3__115time_get_bynameIcNS_19istreambuf_iteratorIcNS_11char_traitsIcEEEEE7__weeksEv;
    _ZNKSt3__115time_get_bynameIcNS_19istreambuf_iteratorIcNS_11char_traitsIcEEEEE8__monthsEv;
    _ZNKSt3__115time_get_bynameIwNS_19istreambuf_iteratorIwNS_11char_traitsIwEEEEE13do_date_orderEv;
    _ZNKSt3__115time_get_bynameIwNS_19istreambuf_iteratorIwNS_11char_traitsIwEEEEE3__cEv;
    _ZNKSt3__115time_get_bynameIwNS_19istreambuf_iteratorIwNS_11char_traitsIwEEEEE3__rEv;
    _ZNKSt3__115time_get_bynameIwNS_19istreambuf_iteratorIwNS_11char_traitsIwEEEEE3__xEv;
    _ZNKSt3__115time_get_bynameIwNS_19istreambuf_iteratorIwNS_11char_traitsIwEEEEE3__XEv;
    _ZNKSt3__115time_get_bynameIwNS_19istreambuf_iteratorIwNS_11char_traitsIwEEEEE7__am_pmEv;
    _ZNKSt3__115time_get_bynameIwNS_19istreambuf_iteratorIwNS_11char_traitsIwEEEEE7__weeksEv;
    _ZNKSt3__115time_get_bynameIwNS_19istreambuf_iteratorIwNS_11char_traitsIwEEEEE8__monthsEv;
    _ZNKSt3__119__iostream_category4nameEv;
    _ZNKSt3__119__iostream_category7messageEi;
    _ZNKSt3__123__future_error_category4nameEv;
    _ZNKSt3__123__future_error_category7messageEi;
    _ZNKSt3__123__system_error_category23default_error_conditionEi;
    _ZNKSt3__123__system_error_category4nameEv;
    _ZNKSt3__123__system_error_category7messageEi;
    _ZNKSt3__124__generic_error_category4nameEv;
    _ZNKSt3__124__generic_error_category7messageEi;
    _ZNKSt3__16locale5__imp9use_facetEl;
    _ZNKSt3__17collateIcE4hashEPKcS3_;
    _ZNKSt3__17collateIcE7compareEPKcS3_S3_S3_;
    _ZNKSt3__17collateIcE9transformEPKcS3_;
    _ZNKSt3__17collateIwE4hashEPKwS3_;
    _ZNKSt3__17collateIwE7compareEPKwS3_S3_S3_;
    _ZNKSt3__17collateIwE9transformEPKwS3_;
    _ZNKSt3__17num_getIcNS_19istreambuf_iteratorIcNS_11char_traitsIcEEEEE3getES4_S4_RNS_8ios_baseERjRb;
    _ZNKSt3__17num_getIcNS_19istreambuf_iteratorIcNS_11char_traitsIcEEEEE3getES4_S4_RNS_8ios_baseERjRd;
    _ZNKSt3__17num_getIcNS_19istreambuf_iteratorIcNS_11char_traitsIcEEEEE3getES4_S4_RNS_8ios_baseERjRe;
    _ZNKSt3__17num_getIcNS_19istreambuf_iteratorIcNS_11char_traitsIcEEEEE3getES4_S4_RNS_8ios_baseERjRf;
    _ZNKSt3__17num_getIcNS_19istreambuf_iteratorIcNS_11char_traitsIcEEEEE3getES4_S4_RNS_8ios_baseERjRl;
    _ZNKSt3__17num_getIcNS_19istreambuf_iteratorIcNS_11char_traitsIcEEEEE3getES4_S4_RNS_8ios_baseERjRm;
    _ZNKSt3__17num_getIcNS_19istreambuf_iteratorIcNS_11char_traitsIcEEEEE3getES4_S4_RNS_8ios_baseERjRPv;
    _ZNKSt3__17num_getIcNS_19istreambuf_iteratorIcNS_11char_traitsIcEEEEE3getES4_S4_RNS_8ios_baseERjRt;
    _ZNKSt3__17num_getIcNS_19istreambuf_iteratorIcNS_11char_traitsIcEEEEE3getES4_S4_RNS_8ios_baseERjRx;
    _ZNKSt3__17num_getIcNS_19istreambuf_iteratorIcNS_11char_traitsIcEEEEE3getES4_S4_RNS_8ios_baseERjRy;
    _ZNKSt3__17num_getIcNS_19istreambuf_iteratorIcNS_11char_traitsIcEEEEE3getES4_S4_RNS_8ios_baseERjS8_;
    _ZNKSt3__17num_getIwNS_19istreambuf_iteratorIwNS_11char_traitsIwEEEEE3getES4_S4_RNS_8ios_baseERjRb;
    _ZNKSt3__17num_getIwNS_19istreambuf_iteratorIwNS_11char_traitsIwEEEEE3getES4_S4_RNS_8ios_baseERjRd;
    _ZNKSt3__17num_getIwNS_19istreambuf_iteratorIwNS_11char_traitsIwEEEEE3getES4_S4_RNS_8ios_baseERjRe;
    _ZNKSt3__17num_getIwNS_19istreambuf_iteratorIwNS_11char_traitsIwEEEEE3getES4_S4_RNS_8ios_baseERjRf;
    _ZNKSt3__17num_getIwNS_19istreambuf_iteratorIwNS_11char_traitsIwEEEEE3getES4_S4_RNS_8ios_baseERjRl;
    _ZNKSt3__17num_getIwNS_19istreambuf_iteratorIwNS_11char_traitsIwEEEEE3getES4_S4_RNS_8ios_baseERjRm;
    _ZNKSt3__17num_getIwNS_19istreambuf_iteratorIwNS_11char_traitsIwEEEEE3getES4_S4_RNS_8ios_baseERjRPv;
    _ZNKSt3__17num_getIwNS_19istreambuf_iteratorIwNS_11char_traitsIwEEEEE3getES4_S4_RNS_8ios_baseERjRt;
    _ZNKSt3__17num_getIwNS_19istreambuf_iteratorIwNS_11char_traitsIwEEEEE3getES4_S4_RNS_8ios_baseERjRx;
    _ZNKSt3__17num_getIwNS_19istreambuf_iteratorIwNS_11char_traitsIwEEEEE3getES4_S4_RNS_8ios_baseERjRy;
    _ZNKSt3__17num_getIwNS_19istreambuf_iteratorIwNS_11char_traitsIwEEEEE3getES4_S4_RNS_8ios_baseERjS8_;
    _ZNKSt3__17num_putIcNS_19ostreambuf_iteratorIcNS_11char_traitsIcEEEEE3putES4_RNS_8ios_baseEcb;
    _ZNKSt3__17num_putIcNS_19ostreambuf_iteratorIcNS_11char_traitsIcEEEEE3putES4_RNS_8ios_baseEcd;
    _ZNKSt3__17num_putIcNS_19ostreambuf_iteratorIcNS_11char_traitsIcEEEEE3putES4_RNS_8ios_baseEce;
    _ZNKSt3__17num_putIcNS_19ostreambuf_iteratorIcNS_11char_traitsIcEEEEE3putES4_RNS_8ios_baseEcl;
    _ZNKSt3__17num_putIcNS_19ostreambuf_iteratorIcNS_11char_traitsIcEEEEE3putES4_RNS_8ios_baseEcm;
    _ZNKSt3__17num_putIcNS_19ostreambuf_iteratorIcNS_11char_traitsIcEEEEE3putES4_RNS_8ios_baseEcPKv;
    _ZNKSt3__17num_putIcNS_19ostreambuf_iteratorIcNS_11char_traitsIcEEEEE3putES4_RNS_8ios_baseEcx;
    _ZNKSt3__17num_putIcNS_19ostreambuf_iteratorIcNS_11char_traitsIcEEEEE3putES4_RNS_8ios_baseEcy;
    _ZNKSt3__17num_putIwNS_19ostreambuf_iteratorIwNS_11char_traitsIwEEEEE3putES4_RNS_8ios_baseEwb;
    _ZNKSt3__17num_putIwNS_19ostreambuf_iteratorIwNS_11char_traitsIwEEEEE3putES4_RNS_8ios_baseEwd;
    _ZNKSt3__17num_putIwNS_19ostreambuf_iteratorIwNS_11char_traitsIwEEEEE3putES4_RNS_8ios_baseEwe;
    _ZNKSt3__17num_putIwNS_19ostreambuf_iteratorIwNS_11char_traitsIwEEEEE3putES4_RNS_8ios_baseEwl;
    _ZNKSt3__17num_putIwNS_19ostreambuf_iteratorIwNS_11char_traitsIwEEEEE3putES4_RNS_8ios_baseEwm;
    _ZNKSt3__17num_putIwNS_19ostreambuf_iteratorIwNS_11char_traitsIwEEEEE3putES4_RNS_8ios_baseEwPKv;
    _ZNKSt3__17num_putIwNS_19ostreambuf_iteratorIwNS_11char_traitsIwEEEEE3putES4_RNS_8ios_baseEwx;
    _ZNKSt3__17num_putIwNS_19ostreambuf_iteratorIwNS_11char_traitsIwEEEEE3putES4_RNS_8ios_baseEwy;
    _ZNKSt3__18messagesIcE3getEiiiRKNS_12basic_stringIcNS_11char_traitsIcEENS_9allocatorIcEEEE;
    _ZNKSt3__18messagesIcE4openERKNS_12basic_stringIcNS_11char_traitsIcEENS_9allocatorIcEEEERKNS_6localeE;
    _ZNKSt3__18messagesIcE5closeEi;
    _ZNKSt3__18messagesIwE3getEiiiRKNS_12basic_stringIwNS_11char_traitsIwEENS_9allocatorIwEEEE;
    _ZNKSt3__18messagesIwE4openERKNS_12basic_stringIcNS_11char_traitsIcEENS_9allocatorIcEEEERKNS_6localeE;
    _ZNKSt3__18messagesIwE5closeEi;
    _ZNKSt3__18time_getIcNS_19istreambuf_iteratorIcNS_11char_traitsIcEEEEE10date_orderEv;
    _ZNKSt3__18time_getIcNS_19istreambuf_iteratorIcNS_11char_traitsIcEEEEE11get_weekdayES4_S4_RNS_8ios_baseERjP2tm;
    _ZNKSt3__18time_getIcNS_19istreambuf_iteratorIcNS_11char_traitsIcEEEEE13get_monthnameES4_S4_RNS_8ios_baseERjP2tm;
    _ZNKSt3__18time_getIcNS_19istreambuf_iteratorIcNS_11char_traitsIcEEEEE3getES4_S4_RNS_8ios_baseERjP2tmcc;
    _ZNKSt3__18time_getIcNS_19istreambuf_iteratorIcNS_11char_traitsIcEEEEE8get_dateES4_S4_RNS_8ios_baseERjP2tm;
    _ZNKSt3__18time_getIcNS_19istreambuf_iteratorIcNS_11char_traitsIcEEEEE8get_timeES4_S4_RNS_8ios_baseERjP2tm;
    _ZNKSt3__18time_getIcNS_19istreambuf_iteratorIcNS_11char_traitsIcEEEEE8get_yearES4_S4_RNS_8ios_baseERjP2tm;
    _ZNKSt3__18time_getIwNS_19istreambuf_iteratorIwNS_11char_traitsIwEEEEE10date_orderEv;
    _ZNKSt3__18time_getIwNS_19istreambuf_iteratorIwNS_11char_traitsIwEEEEE11get_weekdayES4_S4_RNS_8ios_baseERjP2tm;
    _ZNKSt3__18time_getIwNS_19istreambuf_iteratorIwNS_11char_traitsIwEEEEE13get_monthnameES4_S4_RNS_8ios_baseERjP2tm;
    _ZNKSt3__18time_getIwNS_19istreambuf_iteratorIwNS_11char_traitsIwEEEEE3getES4_S4_RNS_8ios_baseERjP2tmcc;
    _ZNKSt3__18time_getIwNS_19istreambuf_iteratorIwNS_11char_traitsIwEEEEE8get_dateES4_S4_RNS_8ios_baseERjP2tm;
    _ZNKSt3__18time_getIwNS_19istreambuf_iteratorIwNS_11char_traitsIwEEEEE8get_timeES4_S4_RNS_8ios_baseERjP2tm;
    _ZNKSt3__18time_getIwNS_19istreambuf_iteratorIwNS_11char_traitsIwEEEEE8get_yearES4_S4_RNS_8ios_baseERjP2tm;
    _ZNKSt3__18time_putIcNS_19ostreambuf_iteratorIcNS_11char_traitsIcEEEEE3putES4_RNS_8ios_baseEcPK2tmcc;
    _ZNKSt3__18time_putIwNS_19ostreambuf_iteratorIwNS_11char_traitsIwEEEEE3putES4_RNS_8ios_baseEwPK2tmcc;
    _ZNKSt3__19basic_iosIcNS_11char_traitsIcEEE10exceptionsEv;
    _ZNKSt3__19basic_iosIcNS_11char_traitsIcEEE3badEv;
    _ZNKSt3__19basic_iosIcNS_11char_traitsIcEEE3eofEv;
    _ZNKSt3__19basic_iosIcNS_11char_traitsIcEEE3tieEv;
    _ZNKSt3__19basic_iosIcNS_11char_traitsIcEEE4failEv;
    _ZNKSt3__19basic_iosIcNS_11char_traitsIcEEE4fillEv;
    _ZNKSt3__19basic_iosIcNS_11char_traitsIcEEE4goodEv;
    _ZNKSt3__19basic_iosIcNS_11char_traitsIcEEE5rdbufEv;
    _ZNKSt3__19basic_iosIcNS_11char_traitsIcEEE5widenEc;
    _ZNKSt3__19basic_iosIcNS_11char_traitsIcEEE6narrowEcc;
    _ZNKSt3__19basic_iosIcNS_11char_traitsIcEEE7rdstateEv;
    _ZNKSt3__19basic_iosIcNS_11char_traitsIcEEEcvbEv;
    _ZNKSt3__19basic_iosIcNS_11char_traitsIcEEEntEv;
    _ZNKSt3__19basic_iosIwNS_11char_traitsIwEEE10exceptionsEv;
    _ZNKSt3__19basic_iosIwNS_11char_traitsIwEEE3badEv;
    _ZNKSt3__19basic_iosIwNS_11char_traitsIwEEE3eofEv;
    _ZNKSt3__19basic_iosIwNS_11char_traitsIwEEE3tieEv;
    _ZNKSt3__19basic_iosIwNS_11char_traitsIwEEE4failEv;
    _ZNKSt3__19basic_iosIwNS_11char_traitsIwEEE4fillEv;
    _ZNKSt3__19basic_iosIwNS_11char_traitsIwEEE4goodEv;
    _ZNKSt3__19basic_iosIwNS_11char_traitsIwEEE5rdbufEv;
    _ZNKSt3__19basic_iosIwNS_11char_traitsIwEEE5widenEc;
    _ZNKSt3__19basic_iosIwNS_11char_traitsIwEEE6narrowEwc;
    _ZNKSt3__19basic_iosIwNS_11char_traitsIwEEE7rdstateEv;
    _ZNKSt3__19basic_iosIwNS_11char_traitsIwEEEcvbEv;
    _ZNKSt3__19basic_iosIwNS_11char_traitsIwEEEntEv;
    _ZNKSt3__19money_getIcNS_19istreambuf_iteratorIcNS_11char_traitsIcEEEEE3getES4_S4_bRNS_8ios_baseERjRe;
    _ZNKSt3__19money_getIcNS_19istreambuf_iteratorIcNS_11char_traitsIcEEEEE3getES4_S4_bRNS_8ios_baseERjRNS_12basic_stringIcS3_NS_9allocatorIcEEEE;
    _ZNKSt3__19money_getIwNS_19istreambuf_iteratorIwNS_11char_traitsIwEEEEE3getES4_S4_bRNS_8ios_baseERjRe;
    _ZNKSt3__19money_getIwNS_19istreambuf_iteratorIwNS_11char_traitsIwEEEEE3getES4_S4_bRNS_8ios_baseERjRNS_12basic_stringIwS3_NS_9allocatorIwEEEE;
    _ZNKSt3__19money_putIcNS_19ostreambuf_iteratorIcNS_11char_traitsIcEEEEE3putES4_bRNS_8ios_baseEce;
    _ZNKSt3__19money_putIcNS_19ostreambuf_iteratorIcNS_11char_traitsIcEEEEE3putES4_bRNS_8ios_baseEcRKNS_12basic_stringIcS3_NS_9allocatorIcEEEE;
    _ZNKSt3__19money_putIwNS_19ostreambuf_iteratorIwNS_11char_traitsIwEEEEE3putES4_bRNS_8ios_baseEwe;
    _ZNKSt3__19money_putIwNS_19ostreambuf_iteratorIwNS_11char_traitsIwEEEEE3putES4_bRNS_8ios_baseEwRKNS_12basic_stringIwS3_NS_9allocatorIwEEEE;
    _ZNSt3__110moneypunctIcLb0EEC1Ej;
    _ZNSt3__110moneypunctIcLb0EEC2Ej;
    _ZNSt3__110moneypunctIcLb0EED0Ev;
    _ZNSt3__110moneypunctIcLb0EED1Ev;
    _ZNSt3__110moneypunctIcLb0EED2Ev;
    _ZNSt3__110moneypunctIcLb1EEC1Ej;
    _ZNSt3__110moneypunctIcLb1EEC2Ej;
    _ZNSt3__110moneypunctIcLb1EED0Ev;
    _ZNSt3__110moneypunctIcLb1EED1Ev;
    _ZNSt3__110moneypunctIcLb1EED2Ev;
    _ZNSt3__110moneypunctIwLb0EEC1Ej;
    _ZNSt3__110moneypunctIwLb0EEC2Ej;
    _ZNSt3__110moneypunctIwLb0EED0Ev;
    _ZNSt3__110moneypunctIwLb0EED1Ev;
    _ZNSt3__110moneypunctIwLb0EED2Ev;
    _ZNSt3__110moneypunctIwLb1EEC1Ej;
    _ZNSt3__110moneypunctIwLb1EEC2Ej;
    _ZNSt3__110moneypunctIwLb1EED0Ev;
    _ZNSt3__110moneypunctIwLb1EED1Ev;
    _ZNSt3__110moneypunctIwLb1EED2Ev;
    _ZNSt3__110__stdinbufIcE5imbueERKNS_6localeE;
    _ZNSt3__110__stdinbufIcE5uflowEv;
    _ZNSt3__110__stdinbufIcE9__getcharEb;
    _ZNSt3__110__stdinbufIcE9pbackfailEi;
    _ZNSt3__110__stdinbufIcE9underflowEv;
    _ZNSt3__110__stdinbufIcEC2EP7__sFILEP9mbstate_t;
    _ZNSt3__110__stdinbufIcED0Ev;
    _ZNSt3__110__stdinbufIwE5imbueERKNS_6localeE;
    _ZNSt3__110__stdinbufIwE5uflowEv;
    _ZNSt3__110__stdinbufIwE9__getcharEb;
    _ZNSt3__110__stdinbufIwE9pbackfailEi;
    _ZNSt3__110__stdinbufIwE9underflowEv;
    _ZNSt3__110__stdinbufIwEC2EP7__sFILEP9mbstate_t;
    _ZNSt3__110__stdinbufIwED0Ev;
    _ZNSt3__111__libcpp_db17__insert_iteratorEPv;
    _ZNSt3__111__money_getIcEC1Ev;
    _ZNSt3__111__money_getIcEC2Ev;
    _ZNSt3__111__money_getIwEC1Ev;
    _ZNSt3__111__money_getIwEC2Ev;
    _ZNSt3__111__money_putIcEC1Ev;
    _ZNSt3__111__money_putIcEC2Ev;
    _ZNSt3__111__money_putIwEC1Ev;
    _ZNSt3__111__money_putIwEC2Ev;
    _ZNSt3__111__stdoutbufIcE4syncEv;
    _ZNSt3__111__stdoutbufIcE5imbueERKNS_6localeE;
    _ZNSt3__111__stdoutbufIcE6xsputnEPKci;
    _ZNSt3__111__stdoutbufIcE8overflowEi;
    _ZNSt3__111__stdoutbufIcEC2EP7__sFILEP9mbstate_t;
    _ZNSt3__111__stdoutbufIcED0Ev;
    _ZNSt3__111__stdoutbufIwE4syncEv;
    _ZNSt3__111__stdoutbufIwE5imbueERKNS_6localeE;
    _ZNSt3__111__stdoutbufIwE6xsputnEPKwi;
    _ZNSt3__111__stdoutbufIwE8overflowEi;
    _ZNSt3__111__stdoutbufIwEC2EP7__sFILEP9mbstate_t;
    _ZNSt3__111__stdoutbufIwED0Ev;
    _ZNSt3__112basic_stringIcNS_11char_traitsIcEENS_9allocatorIcEEE10__set_sizeEj;
    _ZNSt3__112basic_stringIcNS_11char_traitsIcEENS_9allocatorIcEEE11__recommendEj;
    _ZNSt3__112basic_stringIcNS_11char_traitsIcEENS_9allocatorIcEEE12__swap_allocERS4_S6_;
    _ZNSt3__112basic_stringIcNS_11char_traitsIcEENS_9allocatorIcEEE12__swap_allocERS4_S6_NS_17integral_constantIbLb0EEE;
    _ZNSt3__112basic_stringIcNS_11char_traitsIcEENS_9allocatorIcEEE12__swap_allocERS4_S6_NS_17integral_constantIbLb1EEE;
    _ZNSt3__112basic_stringIcNS_11char_traitsIcEENS_9allocatorIcEEE13__get_pointerEv;
    _ZNSt3__112basic_stringIcNS_11char_traitsIcEENS_9allocatorIcEEE13__move_assignERS5_NS_17integral_constantIbLb0EEE;
    _ZNSt3__112basic_stringIcNS_11char_traitsIcEENS_9allocatorIcEEE13__move_assignERS5_NS_17integral_constantIbLb1EEE;
    _ZNSt3__112basic_stringIcNS_11char_traitsIcEENS_9allocatorIcEEE13shrink_to_fitEv;
    _ZNSt3__112basic_stringIcNS_11char_traitsIcEENS_9allocatorIcEEE14__erase_to_endEj;
    _ZNSt3__112basic_stringIcNS_11char_traitsIcEENS_9allocatorIcEEE14__set_long_capEj;
    _ZNSt3__112basic_stringIcNS_11char_traitsIcEENS_9allocatorIcEEE15__set_long_sizeEj;
    _ZNSt3__112basic_stringIcNS_11char_traitsIcEENS_9allocatorIcEEE16__set_short_sizeEj;
    _ZNSt3__112basic_stringIcNS_11char_traitsIcEENS_9allocatorIcEEE18__get_long_pointerEv;
    _ZNSt3__112basic_stringIcNS_11char_traitsIcEENS_9allocatorIcEEE18__set_long_pointerEPc;
    _ZNSt3__112basic_stringIcNS_11char_traitsIcEENS_9allocatorIcEEE19__copy_assign_allocERKS5_;
    _ZNSt3__112basic_stringIcNS_11char_traitsIcEENS_9allocatorIcEEE19__copy_assign_allocERKS5_NS_17integral_constantIbLb0EEE;
    _ZNSt3__112basic_stringIcNS_11char_traitsIcEENS_9allocatorIcEEE19__copy_assign_allocERKS5_NS_17integral_constantIbLb1EEE;
    _ZNSt3__112basic_stringIcNS_11char_traitsIcEENS_9allocatorIcEEE19__get_short_pointerEv;
    _ZNSt3__112basic_stringIcNS_11char_traitsIcEENS_9allocatorIcEEE19__move_assign_allocERS5_;
    _ZNSt3__112basic_stringIcNS_11char_traitsIcEENS_9allocatorIcEEE19__move_assign_allocERS5_NS_17integral_constantIbLb0EEE;
    _ZNSt3__112basic_stringIcNS_11char_traitsIcEENS_9allocatorIcEEE19__move_assign_allocERS5_NS_17integral_constantIbLb1EEE;
    _ZNSt3__112basic_stringIcNS_11char_traitsIcEENS_9allocatorIcEEE26__invalidate_all_iteratorsEv;
    _ZNSt3__112basic_stringIcNS_11char_traitsIcEENS_9allocatorIcEEE27__invalidate_iterators_pastEj;
    _ZNSt3__112basic_stringIcNS_11char_traitsIcEENS_9allocatorIcEEE3endEv;
    _ZNSt3__112basic_stringIcNS_11char_traitsIcEENS_9allocatorIcEEE4backEv;
    _ZNSt3__112basic_stringIcNS_11char_traitsIcEENS_9allocatorIcEEE4rendEv;
    _ZNSt3__112basic_stringIcNS_11char_traitsIcEENS_9allocatorIcEEE4swapERS5_;
    _ZNSt3__112basic_stringIcNS_11char_traitsIcEENS_9allocatorIcEEE5beginEv;
    _ZNSt3__112basic_stringIcNS_11char_traitsIcEENS_9allocatorIcEEE5clearEv;
    _ZNSt3__112basic_stringIcNS_11char_traitsIcEENS_9allocatorIcEEE5eraseENS_11__wrap_iterIPKcEE;
    _ZNSt3__112basic_stringIcNS_11char_traitsIcEENS_9allocatorIcEEE5eraseENS_11__wrap_iterIPKcEES9_;
    _ZNSt3__112basic_stringIcNS_11char_traitsIcEENS_9allocatorIcEEE5frontEv;
    _ZNSt3__112basic_stringIcNS_11char_traitsIcEENS_9allocatorIcEEE6appendERKS5_;
    _ZNSt3__112basic_stringIcNS_11char_traitsIcEENS_9allocatorIcEEE6appendESt16initializer_listIcE;
    _ZNSt3__112basic_stringIcNS_11char_traitsIcEENS_9allocatorIcEEE6assignEOS5_;
    _ZNSt3__112basic_stringIcNS_11char_traitsIcEENS_9allocatorIcEEE6assignERKS5_;
    _ZNSt3__112basic_stringIcNS_11char_traitsIcEENS_9allocatorIcEEE6assignESt16initializer_listIcE;
    _ZNSt3__112basic_stringIcNS_11char_traitsIcEENS_9allocatorIcEEE6insertEjRKS5_;
    _ZNSt3__112basic_stringIcNS_11char_traitsIcEENS_9allocatorIcEEE6insertENS_11__wrap_iterIPKcEEjc;
    _ZNSt3__112basic_stringIcNS_11char_traitsIcEENS_9allocatorIcEEE6insertENS_11__wrap_iterIPKcEESt16initializer_listIcE;
    _ZNSt3__112basic_stringIcNS_11char_traitsIcEENS_9allocatorIcEEE6rbeginEv;
    _ZNSt3__112basic_stringIcNS_11char_traitsIcEENS_9allocatorIcEEE6resizeEj;
    _ZNSt3__112basic_stringIcNS_11char_traitsIcEENS_9allocatorIcEEE6__zeroEv;
    _ZNSt3__112basic_stringIcNS_11char_traitsIcEENS_9allocatorIcEEE7__allocEv;
    _ZNSt3__112basic_stringIcNS_11char_traitsIcEENS_9allocatorIcEEE7replaceEjjRKS5_;
    _ZNSt3__112basic_stringIcNS_11char_traitsIcEENS_9allocatorIcEEE7replaceENS_11__wrap_iterIPKcEES9_jc;
    _ZNSt3__112basic_stringIcNS_11char_traitsIcEENS_9allocatorIcEEE7replaceENS_11__wrap_iterIPKcEES9_RKS5_;
    _ZNSt3__112basic_stringIcNS_11char_traitsIcEENS_9allocatorIcEEE7replaceENS_11__wrap_iterIPKcEES9_S8_;
    _ZNSt3__112basic_stringIcNS_11char_traitsIcEENS_9allocatorIcEEE7replaceENS_11__wrap_iterIPKcEES9_S8_j;
    _ZNSt3__112basic_stringIcNS_11char_traitsIcEENS_9allocatorIcEEE7replaceENS_11__wrap_iterIPKcEES9_St16initializer_listIcE;
    _ZNSt3__112basic_stringIcNS_11char_traitsIcEENS_9allocatorIcEEE8pop_backEv;
    _ZNSt3__112basic_stringIcNS_11char_traitsIcEENS_9allocatorIcEEEaSEOS5_;
    _ZNSt3__112basic_stringIcNS_11char_traitsIcEENS_9allocatorIcEEEaSEPKc;
    _ZNSt3__112basic_stringIcNS_11char_traitsIcEENS_9allocatorIcEEEaSESt16initializer_listIcE;
    _ZNSt3__112basic_stringIcNS_11char_traitsIcEENS_9allocatorIcEEEC1Ejc;
    _ZNSt3__112basic_stringIcNS_11char_traitsIcEENS_9allocatorIcEEEC1EjcRKS4_;
    _ZNSt3__112basic_stringIcNS_11char_traitsIcEENS_9allocatorIcEEEC1EOS5_;
    _ZNSt3__112basic_stringIcNS_11char_traitsIcEENS_9allocatorIcEEEC1EOS5_RKS4_;
    _ZNSt3__112basic_stringIcNS_11char_traitsIcEENS_9allocatorIcEEEC1EPKc;
    _ZNSt3__112basic_stringIcNS_11char_traitsIcEENS_9allocatorIcEEEC1EPKcj;
    _ZNSt3__112basic_stringIcNS_11char_traitsIcEENS_9allocatorIcEEEC1EPKcjRKS4_;
    _ZNSt3__112basic_stringIcNS_11char_traitsIcEENS_9allocatorIcEEEC1EPKcRKS4_;
    _ZNSt3__112basic_stringIcNS_11char_traitsIcEENS_9allocatorIcEEEC1ERKS4_;
    _ZNSt3__112basic_stringIcNS_11char_traitsIcEENS_9allocatorIcEEEC1ESt16initializer_listIcE;
    _ZNSt3__112basic_stringIcNS_11char_traitsIcEENS_9allocatorIcEEEC1ESt16initializer_listIcERKS4_;
    _ZNSt3__112basic_stringIcNS_11char_traitsIcEENS_9allocatorIcEEEC1Ev;
    _ZNSt3__112basic_stringIcNS_11char_traitsIcEENS_9allocatorIcEEEC2Ejc;
    _ZNSt3__112basic_stringIcNS_11char_traitsIcEENS_9allocatorIcEEEC2EjcRKS4_;
    _ZNSt3__112basic_stringIcNS_11char_traitsIcEENS_9allocatorIcEEEC2EOS5_;
    _ZNSt3__112basic_stringIcNS_11char_traitsIcEENS_9allocatorIcEEEC2EOS5_RKS4_;
    _ZNSt3__112basic_stringIcNS_11char_traitsIcEENS_9allocatorIcEEEC2EPKc;
    _ZNSt3__112basic_stringIcNS_11char_traitsIcEENS_9allocatorIcEEEC2EPKcj;
    _ZNSt3__112basic_stringIcNS_11char_traitsIcEENS_9allocatorIcEEEC2EPKcjRKS4_;
    _ZNSt3__112basic_stringIcNS_11char_traitsIcEENS_9allocatorIcEEEC2EPKcRKS4_;
    _ZNSt3__112basic_stringIcNS_11char_traitsIcEENS_9allocatorIcEEEC2ERKS4_;
    _ZNSt3__112basic_stringIcNS_11char_traitsIcEENS_9allocatorIcEEEC2ESt16initializer_listIcE;
    _ZNSt3__112basic_stringIcNS_11char_traitsIcEENS_9allocatorIcEEEC2ESt16initializer_listIcERKS4_;
    _ZNSt3__112basic_stringIcNS_11char_traitsIcEENS_9allocatorIcEEEC2Ev;
    _ZNSt3__112basic_stringIcNS_11char_traitsIcEENS_9allocatorIcEEEixEj;
    _ZNSt3__112basic_stringIcNS_11char_traitsIcEENS_9allocatorIcEEEpLEc;
    _ZNSt3__112basic_stringIcNS_11char_traitsIcEENS_9allocatorIcEEEpLEPKc;
    _ZNSt3__112basic_stringIcNS_11char_traitsIcEENS_9allocatorIcEEEpLERKS5_;
    _ZNSt3__112basic_stringIcNS_11char_traitsIcEENS_9allocatorIcEEEpLESt16initializer_listIcE;
    _ZNSt3__112basic_stringIwNS_11char_traitsIwEENS_9allocatorIwEEE10__set_sizeEj;
    _ZNSt3__112basic_stringIwNS_11char_traitsIwEENS_9allocatorIwEEE11__recommendEj;
    _ZNSt3__112basic_stringIwNS_11char_traitsIwEENS_9allocatorIwEEE12__swap_allocERS4_S6_;
    _ZNSt3__112basic_stringIwNS_11char_traitsIwEENS_9allocatorIwEEE12__swap_allocERS4_S6_NS_17integral_constantIbLb0EEE;
    _ZNSt3__112basic_stringIwNS_11char_traitsIwEENS_9allocatorIwEEE12__swap_allocERS4_S6_NS_17integral_constantIbLb1EEE;
    _ZNSt3__112basic_stringIwNS_11char_traitsIwEENS_9allocatorIwEEE13__get_pointerEv;
    _ZNSt3__112basic_stringIwNS_11char_traitsIwEENS_9allocatorIwEEE13__move_assignERS5_NS_17integral_constantIbLb0EEE;
    _ZNSt3__112basic_stringIwNS_11char_traitsIwEENS_9allocatorIwEEE13__move_assignERS5_NS_17integral_constantIbLb1EEE;
    _ZNSt3__112basic_stringIwNS_11char_traitsIwEENS_9allocatorIwEEE13shrink_to_fitEv;
    _ZNSt3__112basic_stringIwNS_11char_traitsIwEENS_9allocatorIwEEE14__erase_to_endEj;
    _ZNSt3__112basic_stringIwNS_11char_traitsIwEENS_9allocatorIwEEE14__set_long_capEj;
    _ZNSt3__112basic_stringIwNS_11char_traitsIwEENS_9allocatorIwEEE15__set_long_sizeEj;
    _ZNSt3__112basic_stringIwNS_11char_traitsIwEENS_9allocatorIwEEE16__set_short_sizeEj;
    _ZNSt3__112basic_stringIwNS_11char_traitsIwEENS_9allocatorIwEEE18__get_long_pointerEv;
    _ZNSt3__112basic_stringIwNS_11char_traitsIwEENS_9allocatorIwEEE18__set_long_pointerEPw;
    _ZNSt3__112basic_stringIwNS_11char_traitsIwEENS_9allocatorIwEEE19__copy_assign_allocERKS5_;
    _ZNSt3__112basic_stringIwNS_11char_traitsIwEENS_9allocatorIwEEE19__copy_assign_allocERKS5_NS_17integral_constantIbLb0EEE;
    _ZNSt3__112basic_stringIwNS_11char_traitsIwEENS_9allocatorIwEEE19__copy_assign_allocERKS5_NS_17integral_constantIbLb1EEE;
    _ZNSt3__112basic_stringIwNS_11char_traitsIwEENS_9allocatorIwEEE19__get_short_pointerEv;
    _ZNSt3__112basic_stringIwNS_11char_traitsIwEENS_9allocatorIwEEE19__move_assign_allocERS5_;
    _ZNSt3__112basic_stringIwNS_11char_traitsIwEENS_9allocatorIwEEE19__move_assign_allocERS5_NS_17integral_constantIbLb0EEE;
    _ZNSt3__112basic_stringIwNS_11char_traitsIwEENS_9allocatorIwEEE19__move_assign_allocERS5_NS_17integral_constantIbLb1EEE;
    _ZNSt3__112basic_stringIwNS_11char_traitsIwEENS_9allocatorIwEEE26__invalidate_all_iteratorsEv;
    _ZNSt3__112basic_stringIwNS_11char_traitsIwEENS_9allocatorIwEEE27__invalidate_iterators_pastEj;
    _ZNSt3__112basic_stringIwNS_11char_traitsIwEENS_9allocatorIwEEE3endEv;
    _ZNSt3__112basic_stringIwNS_11char_traitsIwEENS_9allocatorIwEEE4backEv;
    _ZNSt3__112basic_stringIwNS_11char_traitsIwEENS_9allocatorIwEEE4rendEv;
    _ZNSt3__112basic_stringIwNS_11char_traitsIwEENS_9allocatorIwEEE4swapERS5_;
    _ZNSt3__112basic_stringIwNS_11char_traitsIwEENS_9allocatorIwEEE5beginEv;
    _ZNSt3__112basic_stringIwNS_11char_traitsIwEENS_9allocatorIwEEE5clearEv;
    _ZNSt3__112basic_stringIwNS_11char_traitsIwEENS_9allocatorIwEEE5eraseENS_11__wrap_iterIPKwEE;
    _ZNSt3__112basic_stringIwNS_11char_traitsIwEENS_9allocatorIwEEE5eraseENS_11__wrap_iterIPKwEES9_;
    _ZNSt3__112basic_stringIwNS_11char_traitsIwEENS_9allocatorIwEEE5frontEv;
    _ZNSt3__112basic_stringIwNS_11char_traitsIwEENS_9allocatorIwEEE6appendERKS5_;
    _ZNSt3__112basic_stringIwNS_11char_traitsIwEENS_9allocatorIwEEE6appendESt16initializer_listIwE;
    _ZNSt3__112basic_stringIwNS_11char_traitsIwEENS_9allocatorIwEEE6assignEOS5_;
    _ZNSt3__112basic_stringIwNS_11char_traitsIwEENS_9allocatorIwEEE6assignERKS5_;
    _ZNSt3__112basic_stringIwNS_11char_traitsIwEENS_9allocatorIwEEE6assignESt16initializer_listIwE;
    _ZNSt3__112basic_stringIwNS_11char_traitsIwEENS_9allocatorIwEEE6insertEjRKS5_;
    _ZNSt3__112basic_stringIwNS_11char_traitsIwEENS_9allocatorIwEEE6insertENS_11__wrap_iterIPKwEEjw;
    _ZNSt3__112basic_stringIwNS_11char_traitsIwEENS_9allocatorIwEEE6insertENS_11__wrap_iterIPKwEESt16initializer_listIwE;
    _ZNSt3__112basic_stringIwNS_11char_traitsIwEENS_9allocatorIwEEE6rbeginEv;
    _ZNSt3__112basic_stringIwNS_11char_traitsIwEENS_9allocatorIwEEE6resizeEj;
    _ZNSt3__112basic_stringIwNS_11char_traitsIwEENS_9allocatorIwEEE6__zeroEv;
    _ZNSt3__112basic_stringIwNS_11char_traitsIwEENS_9allocatorIwEEE7__allocEv;
    _ZNSt3__112basic_stringIwNS_11char_traitsIwEENS_9allocatorIwEEE7replaceEjjRKS5_;
    _ZNSt3__112basic_stringIwNS_11char_traitsIwEENS_9allocatorIwEEE7replaceENS_11__wrap_iterIPKwEES9_jw;
    _ZNSt3__112basic_stringIwNS_11char_traitsIwEENS_9allocatorIwEEE7replaceENS_11__wrap_iterIPKwEES9_RKS5_;
    _ZNSt3__112basic_stringIwNS_11char_traitsIwEENS_9allocatorIwEEE7replaceENS_11__wrap_iterIPKwEES9_S8_;
    _ZNSt3__112basic_stringIwNS_11char_traitsIwEENS_9allocatorIwEEE7replaceENS_11__wrap_iterIPKwEES9_S8_j;
    _ZNSt3__112basic_stringIwNS_11char_traitsIwEENS_9allocatorIwEEE7replaceENS_11__wrap_iterIPKwEES9_St16initializer_listIwE;
    _ZNSt3__112basic_stringIwNS_11char_traitsIwEENS_9allocatorIwEEE8pop_backEv;
    _ZNSt3__112basic_stringIwNS_11char_traitsIwEENS_9allocatorIwEEEaSEOS5_;
    _ZNSt3__112basic_stringIwNS_11char_traitsIwEENS_9allocatorIwEEEaSEPKw;
    _ZNSt3__112basic_stringIwNS_11char_traitsIwEENS_9allocatorIwEEEaSESt16initializer_listIwE;
    _ZNSt3__112basic_stringIwNS_11char_traitsIwEENS_9allocatorIwEEEC1Ejw;
    _ZNSt3__112basic_stringIwNS_11char_traitsIwEENS_9allocatorIwEEEC1EjwRKS4_;
    _ZNSt3__112basic_stringIwNS_11char_traitsIwEENS_9allocatorIwEEEC1EOS5_;
    _ZNSt3__112basic_stringIwNS_11char_traitsIwEENS_9allocatorIwEEEC1EOS5_RKS4_;
    _ZNSt3__112basic_stringIwNS_11char_traitsIwEENS_9allocatorIwEEEC1EPKw;
    _ZNSt3__112basic_stringIwNS_11char_traitsIwEENS_9allocatorIwEEEC1EPKwj;
    _ZNSt3__112basic_stringIwNS_11char_traitsIwEENS_9allocatorIwEEEC1EPKwjRKS4_;
    _ZNSt3__112basic_stringIwNS_11char_traitsIwEENS_9allocatorIwEEEC1EPKwRKS4_;
    _ZNSt3__112basic_stringIwNS_11char_traitsIwEENS_9allocatorIwEEEC1ERKS4_;
    _ZNSt3__112basic_stringIwNS_11char_traitsIwEENS_9allocatorIwEEEC1ESt16initializer_listIwE;
    _ZNSt3__112basic_stringIwNS_11char_traitsIwEENS_9allocatorIwEEEC1ESt16initializer_listIwERKS4_;
    _ZNSt3__112basic_stringIwNS_11char_traitsIwEENS_9allocatorIwEEEC1Ev;
    _ZNSt3__112basic_stringIwNS_11char_traitsIwEENS_9allocatorIwEEEC2Ejw;
    _ZNSt3__112basic_stringIwNS_11char_traitsIwEENS_9allocatorIwEEEC2EjwRKS4_;
    _ZNSt3__112basic_stringIwNS_11char_traitsIwEENS_9allocatorIwEEEC2EOS5_;
    _ZNSt3__112basic_stringIwNS_11char_traitsIwEENS_9allocatorIwEEEC2EOS5_RKS4_;
    _ZNSt3__112basic_stringIwNS_11char_traitsIwEENS_9allocatorIwEEEC2EPKw;
    _ZNSt3__112basic_stringIwNS_11char_traitsIwEENS_9allocatorIwEEEC2EPKwj;
    _ZNSt3__112basic_stringIwNS_11char_traitsIwEENS_9allocatorIwEEEC2EPKwjRKS4_;
    _ZNSt3__112basic_stringIwNS_11char_traitsIwEENS_9allocatorIwEEEC2EPKwRKS4_;
    _ZNSt3__112basic_stringIwNS_11char_traitsIwEENS_9allocatorIwEEEC2ERKS4_;
    _ZNSt3__112basic_stringIwNS_11char_traitsIwEENS_9allocatorIwEEEC2ESt16initializer_listIwE;
    _ZNSt3__112basic_stringIwNS_11char_traitsIwEENS_9allocatorIwEEEC2ESt16initializer_listIwERKS4_;
    _ZNSt3__112basic_stringIwNS_11char_traitsIwEENS_9allocatorIwEEEC2Ev;
    _ZNSt3__112basic_stringIwNS_11char_traitsIwEENS_9allocatorIwEEEixEj;
    _ZNSt3__112basic_stringIwNS_11char_traitsIwEENS_9allocatorIwEEEpLEPKw;
    _ZNSt3__112basic_stringIwNS_11char_traitsIwEENS_9allocatorIwEEEpLERKS5_;
    _ZNSt3__112basic_stringIwNS_11char_traitsIwEENS_9allocatorIwEEEpLESt16initializer_listIwE;
    _ZNSt3__112basic_stringIwNS_11char_traitsIwEENS_9allocatorIwEEEpLEw;
    _ZNSt3__112__do_messageD0Ev;
    _ZNSt3__113basic_istreamIcNS_11char_traitsIcEEEaSEOS3_;
    _ZNSt3__113basic_istreamIcNS_11char_traitsIcEEEC1EOS3_;
    _ZNSt3__113basic_istreamIcNS_11char_traitsIcEEEC2EOS3_;
    _ZNSt3__113basic_istreamIwNS_11char_traitsIwEEEaSEOS3_;
    _ZNSt3__113basic_istreamIwNS_11char_traitsIwEEEC1EOS3_;
    _ZNSt3__113basic_istreamIwNS_11char_traitsIwEEEC2EOS3_;
    _ZNSt3__113basic_ostreamIcNS_11char_traitsIcEEEaSEOS3_;
    _ZNSt3__113basic_ostreamIcNS_11char_traitsIcEEEC1EOS3_;
    _ZNSt3__113basic_ostreamIcNS_11char_traitsIcEEEC1Ev;
    _ZNSt3__113basic_ostreamIcNS_11char_traitsIcEEEC2EOS3_;
    _ZNSt3__113basic_ostreamIcNS_11char_traitsIcEEEC2Ev;
    _ZNSt3__113basic_ostreamIwNS_11char_traitsIwEEEaSEOS3_;
    _ZNSt3__113basic_ostreamIwNS_11char_traitsIwEEEC1EOS3_;
    _ZNSt3__113basic_ostreamIwNS_11char_traitsIwEEEC1Ev;
    _ZNSt3__113basic_ostreamIwNS_11char_traitsIwEEEC2EOS3_;
    _ZNSt3__113basic_ostreamIwNS_11char_traitsIwEEEC2Ev;
    _ZNSt3__114basic_iostreamIcNS_11char_traitsIcEEEaSEOS3_;
    _ZNSt3__114basic_iostreamIcNS_11char_traitsIcEEEC1EOS3_;
    _ZNSt3__114basic_iostreamIcNS_11char_traitsIcEEEC2EOS3_;
    _ZNSt3__114codecvt_bynameIcc9mbstate_tEC1EPKcj;
    _ZNSt3__114codecvt_bynameIcc9mbstate_tEC1ERKNS_12basic_stringIcNS_11char_traitsIcEENS_9allocatorIcEEEEj;
    _ZNSt3__114codecvt_bynameIcc9mbstate_tEC2EPKcj;
    _ZNSt3__114codecvt_bynameIcc9mbstate_tEC2ERKNS_12basic_stringIcNS_11char_traitsIcEENS_9allocatorIcEEEEj;
    _ZNSt3__114codecvt_bynameIDic9mbstate_tEC1EPKcj;
    _ZNSt3__114codecvt_bynameIDic9mbstate_tEC1ERKNS_12basic_stringIcNS_11char_traitsIcEENS_9allocatorIcEEEEj;
    _ZNSt3__114codecvt_bynameIDic9mbstate_tEC2EPKcj;
    _ZNSt3__114codecvt_bynameIDic9mbstate_tEC2ERKNS_12basic_stringIcNS_11char_traitsIcEENS_9allocatorIcEEEEj;
    _ZNSt3__114codecvt_bynameIDsc9mbstate_tEC1EPKcj;
    _ZNSt3__114codecvt_bynameIDsc9mbstate_tEC1ERKNS_12basic_stringIcNS_11char_traitsIcEENS_9allocatorIcEEEEj;
    _ZNSt3__114codecvt_bynameIDsc9mbstate_tEC2EPKcj;
    _ZNSt3__114codecvt_bynameIDsc9mbstate_tEC2ERKNS_12basic_stringIcNS_11char_traitsIcEENS_9allocatorIcEEEEj;
    _ZNSt3__114codecvt_bynameIwc9mbstate_tEC1EPKcj;
    _ZNSt3__114codecvt_bynameIwc9mbstate_tEC1ERKNS_12basic_stringIcNS_11char_traitsIcEENS_9allocatorIcEEEEj;
    _ZNSt3__114codecvt_bynameIwc9mbstate_tEC2EPKcj;
    _ZNSt3__114codecvt_bynameIwc9mbstate_tEC2ERKNS_12basic_stringIcNS_11char_traitsIcEENS_9allocatorIcEEEEj;
    _ZNSt3__114__scan_keywordINS_19istreambuf_iteratorIcNS_11char_traitsIcEEEEPKNS_12basic_stringIcS3_NS_9allocatorIcEEEENS_5ctypeIcEEEET0_RT_SE_SD_SD_RKT1_Rjb;
    _ZNSt3__114__scan_keywordINS_19istreambuf_iteratorIwNS_11char_traitsIwEEEEPKNS_12basic_stringIwS3_NS_9allocatorIwEEEENS_5ctypeIwEEEET0_RT_SE_SD_SD_RKT1_Rjb;
    _ZNSt3__114__scan_keywordIPcPNS_12basic_stringIcNS_11char_traitsIcEENS_9allocatorIcEEEENS_5ctypeIcEEEET0_RT_SC_SB_SB_RKT1_Rjb;
    _ZNSt3__114__scan_keywordIPwPNS_12basic_stringIwNS_11char_traitsIwEENS_9allocatorIwEEEENS_5ctypeIwEEEET0_RT_SC_SB_SB_RKT1_Rjb;
    _ZNSt3__115messages_bynameIcEC1EPKcj;
    _ZNSt3__115messages_bynameIcEC1ERKNS_12basic_stringIcNS_11char_traitsIcEENS_9allocatorIcEEEEj;
    _ZNSt3__115messages_bynameIcEC2EPKcj;
    _ZNSt3__115messages_bynameIcEC2ERKNS_12basic_stringIcNS_11char_traitsIcEENS_9allocatorIcEEEEj;
    _ZNSt3__115messages_bynameIcED0Ev;
    _ZNSt3__115messages_bynameIcED1Ev;
    _ZNSt3__115messages_bynameIcED2Ev;
    _ZNSt3__115messages_bynameIwEC1EPKcj;
    _ZNSt3__115messages_bynameIwEC1ERKNS_12basic_stringIcNS_11char_traitsIcEENS_9allocatorIcEEEEj;
    _ZNSt3__115messages_bynameIwEC2EPKcj;
    _ZNSt3__115messages_bynameIwEC2ERKNS_12basic_stringIcNS_11char_traitsIcEENS_9allocatorIcEEEEj;
    _ZNSt3__115messages_bynameIwED0Ev;
    _ZNSt3__115messages_bynameIwED1Ev;
    _ZNSt3__115messages_bynameIwED2Ev;
    _ZNSt3__115time_get_bynameIcNS_19istreambuf_iteratorIcNS_11char_traitsIcEEEEEC1EPKcj;
    _ZNSt3__115time_get_bynameIcNS_19istreambuf_iteratorIcNS_11char_traitsIcEEEEEC1ERKNS_12basic_stringIcS3_NS_9allocatorIcEEEEj;
    _ZNSt3__115time_get_bynameIcNS_19istreambuf_iteratorIcNS_11char_traitsIcEEEEEC2EPKcj;
    _ZNSt3__115time_get_bynameIcNS_19istreambuf_iteratorIcNS_11char_traitsIcEEEEEC2ERKNS_12basic_stringIcS3_NS_9allocatorIcEEEEj;
    _ZNSt3__115time_get_bynameIcNS_19istreambuf_iteratorIcNS_11char_traitsIcEEEEED0Ev;
    _ZNSt3__115time_get_bynameIcNS_19istreambuf_iteratorIcNS_11char_traitsIcEEEEED1Ev;
    _ZNSt3__115time_get_bynameIcNS_19istreambuf_iteratorIcNS_11char_traitsIcEEEEED2Ev;
    _ZNSt3__115time_get_bynameIwNS_19istreambuf_iteratorIwNS_11char_traitsIwEEEEEC1EPKcj;
    _ZNSt3__115time_get_bynameIwNS_19istreambuf_iteratorIwNS_11char_traitsIwEEEEEC1ERKNS_12basic_stringIcNS2_IcEENS_9allocatorIcEEEEj;
    _ZNSt3__115time_get_bynameIwNS_19istreambuf_iteratorIwNS_11char_traitsIwEEEEEC2EPKcj;
    _ZNSt3__115time_get_bynameIwNS_19istreambuf_iteratorIwNS_11char_traitsIwEEEEEC2ERKNS_12basic_stringIcNS2_IcEENS_9allocatorIcEEEEj;
    _ZNSt3__115time_get_bynameIwNS_19istreambuf_iteratorIwNS_11char_traitsIwEEEEED0Ev;
    _ZNSt3__115time_get_bynameIwNS_19istreambuf_iteratorIwNS_11char_traitsIwEEEEED1Ev;
    _ZNSt3__115time_get_bynameIwNS_19istreambuf_iteratorIwNS_11char_traitsIwEEEEED2Ev;
    _ZNSt3__115__time_get_tempIcED0Ev;
    _ZNSt3__115__time_get_tempIwED0Ev;
    _ZNSt3__115time_put_bynameIcNS_19ostreambuf_iteratorIcNS_11char_traitsIcEEEEEC1EPKcj;
    _ZNSt3__115time_put_bynameIcNS_19ostreambuf_iteratorIcNS_11char_traitsIcEEEEEC1ERKNS_12basic_stringIcS3_NS_9allocatorIcEEEEj;
    _ZNSt3__115time_put_bynameIcNS_19ostreambuf_iteratorIcNS_11char_traitsIcEEEEEC2EPKcj;
    _ZNSt3__115time_put_bynameIcNS_19ostreambuf_iteratorIcNS_11char_traitsIcEEEEEC2ERKNS_12basic_stringIcS3_NS_9allocatorIcEEEEj;
    _ZNSt3__115time_put_bynameIcNS_19ostreambuf_iteratorIcNS_11char_traitsIcEEEEED0Ev;
    _ZNSt3__115time_put_bynameIcNS_19ostreambuf_iteratorIcNS_11char_traitsIcEEEEED1Ev;
    _ZNSt3__115time_put_bynameIcNS_19ostreambuf_iteratorIcNS_11char_traitsIcEEEEED2Ev;
    _ZNSt3__115time_put_bynameIwNS_19ostreambuf_iteratorIwNS_11char_traitsIwEEEEEC1EPKcj;
    _ZNSt3__115time_put_bynameIwNS_19ostreambuf_iteratorIwNS_11char_traitsIwEEEEEC1ERKNS_12basic_stringIcNS2_IcEENS_9allocatorIcEEEEj;
    _ZNSt3__115time_put_bynameIwNS_19ostreambuf_iteratorIwNS_11char_traitsIwEEEEEC2EPKcj;
    _ZNSt3__115time_put_bynameIwNS_19ostreambuf_iteratorIwNS_11char_traitsIwEEEEEC2ERKNS_12basic_stringIcNS2_IcEENS_9allocatorIcEEEEj;
    _ZNSt3__115time_put_bynameIwNS_19ostreambuf_iteratorIwNS_11char_traitsIwEEEEED0Ev;
    _ZNSt3__115time_put_bynameIwNS_19ostreambuf_iteratorIwNS_11char_traitsIwEEEEED1Ev;
    _ZNSt3__115time_put_bynameIwNS_19ostreambuf_iteratorIwNS_11char_traitsIwEEEEED2Ev;
    _ZNSt3__116__pad_and_outputIcNS_11char_traitsIcEEEENS_19ostreambuf_iteratorIT_T0_EES6_PKS4_S8_S8_RNS_8ios_baseES4_;
    _ZNSt3__116__pad_and_outputIwNS_11char_traitsIwEEEENS_19ostreambuf_iteratorIT_T0_EES6_PKS4_S8_S8_RNS_8ios_baseES4_;
    _ZNSt3__117moneypunct_bynameIcLb0EEC1EPKcj;
    _ZNSt3__117moneypunct_bynameIcLb0EEC1ERKNS_12basic_stringIcNS_11char_traitsIcEENS_9allocatorIcEEEEj;
    _ZNSt3__117moneypunct_bynameIcLb0EEC2EPKcj;
    _ZNSt3__117moneypunct_bynameIcLb0EEC2ERKNS_12basic_stringIcNS_11char_traitsIcEENS_9allocatorIcEEEEj;
    _ZNSt3__117moneypunct_bynameIcLb0EED0Ev;
    _ZNSt3__117moneypunct_bynameIcLb0EED1Ev;
    _ZNSt3__117moneypunct_bynameIcLb0EED2Ev;
    _ZNSt3__117moneypunct_bynameIcLb1EEC1EPKcj;
    _ZNSt3__117moneypunct_bynameIcLb1EEC1ERKNS_12basic_stringIcNS_11char_traitsIcEENS_9allocatorIcEEEEj;
    _ZNSt3__117moneypunct_bynameIcLb1EEC2EPKcj;
    _ZNSt3__117moneypunct_bynameIcLb1EEC2ERKNS_12basic_stringIcNS_11char_traitsIcEENS_9allocatorIcEEEEj;
    _ZNSt3__117moneypunct_bynameIcLb1EED0Ev;
    _ZNSt3__117moneypunct_bynameIcLb1EED1Ev;
    _ZNSt3__117moneypunct_bynameIcLb1EED2Ev;
    _ZNSt3__117moneypunct_bynameIwLb0EEC1EPKcj;
    _ZNSt3__117moneypunct_bynameIwLb0EEC1ERKNS_12basic_stringIcNS_11char_traitsIcEENS_9allocatorIcEEEEj;
    _ZNSt3__117moneypunct_bynameIwLb0EEC2EPKcj;
    _ZNSt3__117moneypunct_bynameIwLb0EEC2ERKNS_12basic_stringIcNS_11char_traitsIcEENS_9allocatorIcEEEEj;
    _ZNSt3__117moneypunct_bynameIwLb0EED0Ev;
    _ZNSt3__117moneypunct_bynameIwLb0EED1Ev;
    _ZNSt3__117moneypunct_bynameIwLb0EED2Ev;
    _ZNSt3__117moneypunct_bynameIwLb1EEC1EPKcj;
    _ZNSt3__117moneypunct_bynameIwLb1EEC1ERKNS_12basic_stringIcNS_11char_traitsIcEENS_9allocatorIcEEEEj;
    _ZNSt3__117moneypunct_bynameIwLb1EEC2EPKcj;
    _ZNSt3__117moneypunct_bynameIwLb1EEC2ERKNS_12basic_stringIcNS_11char_traitsIcEENS_9allocatorIcEEEEj;
    _ZNSt3__117moneypunct_bynameIwLb1EED0Ev;
    _ZNSt3__117moneypunct_bynameIwLb1EED1Ev;
    _ZNSt3__117moneypunct_bynameIwLb1EED2Ev;
    _ZNSt3__119__double_or_nothingIcEEvRNS_10unique_ptrIT_PFvPvEEERPS2_S9_;
    _ZNSt3__119__double_or_nothingIwEEvRNS_10unique_ptrIT_PFvPvEEERPS2_S9_;
    _ZNSt3__119__iostream_categoryD0Ev;
    _ZNSt3__119__thread_struct_imp25notify_all_at_thread_exitEPNS_18condition_variableEPNS_5mutexE;
    _ZNSt3__119__thread_struct_imp27__make_ready_at_thread_exitEPNS_17__assoc_sub_stateE;
    _ZNSt3__119__thread_struct_impD1Ev;
    _ZNSt3__119__thread_struct_impD2Ev;
    _ZNSt3__120__get_up_to_n_digitsIcNS_19istreambuf_iteratorIcNS_11char_traitsIcEEEEEEiRT0_S5_RjRKNS_5ctypeIT_EEi;
    _ZNSt3__120__get_up_to_n_digitsIcPcEEiRT0_S2_RjRKNS_5ctypeIT_EEi;
    _ZNSt3__120__get_up_to_n_digitsIwNS_19istreambuf_iteratorIwNS_11char_traitsIwEEEEEEiRT0_S5_RjRKNS_5ctypeIT_EEi;
    _ZNSt3__120__get_up_to_n_digitsIwPwEEiRT0_S2_RjRKNS_5ctypeIT_EEi;
    _ZNSt3__120__vector_base_commonILb1EEC1Ev;
    _ZNSt3__120__vector_base_commonILb1EEC2Ev;
    _ZNSt3__123__future_error_categoryD0Ev;
    _ZNSt3__123__system_error_categoryD0Ev;
    _ZNSt3__124__generic_error_categoryD0Ev;
    _ZNSt3__16locale5__imp11make_globalEv;
    _ZNSt3__16locale5__imp12make_classicEv;
    _ZNSt3__16locale5__imp7installEPNS0_5facetEl;
    _ZNSt3__16locale5__impC1Ej;
    _ZNSt3__16locale5__impC1ERKNS_12basic_stringIcNS_11char_traitsIcEENS_9allocatorIcEEEEj;
    _ZNSt3__16locale5__impC1ERKS1_;
    _ZNSt3__16locale5__impC1ERKS1_PNS0_5facetEl;
    _ZNSt3__16locale5__impC1ERKS1_RKNS_12basic_stringIcNS_11char_traitsIcEENS_9allocatorIcEEEEi;
    _ZNSt3__16locale5__impC1ERKS1_S3_i;
    _ZNSt3__16locale5__impC2Ej;
    _ZNSt3__16locale5__impC2ERKNS_12basic_stringIcNS_11char_traitsIcEENS_9allocatorIcEEEEj;
    _ZNSt3__16locale5__impC2ERKS1_;
    _ZNSt3__16locale5__impC2ERKS1_PNS0_5facetEl;
    _ZNSt3__16locale5__impC2ERKS1_RKNS_12basic_stringIcNS_11char_traitsIcEENS_9allocatorIcEEEEi;
    _ZNSt3__16locale5__impC2ERKS1_S3_i;
    _ZNSt3__16locale5__impD0Ev;
    _ZNSt3__16locale5__impD1Ev;
    _ZNSt3__16locale5__impD2Ev;
    _ZNSt3__16vectorINS_4pairIPNS_18condition_variableEPNS_5mutexEEENS_18__hidden_allocatorIS6_EEE21__push_back_slow_pathIS6_EEvOT_;
    _ZNSt3__16vectorIPNS_17__assoc_sub_stateENS_18__hidden_allocatorIS2_EEE21__push_back_slow_pathIRKS2_EEvOT_;
    _ZNSt3__16vectorIPNS_6locale5facetENS_15__sso_allocatorIS3_Lj28EEEE6assignIPS3_EENS_9enable_ifIXaasr21__is_forward_iteratorIT_EE5valuesr16is_constructibleIS3_NS_15iterator_traitsISA_E9referenceEEE5valueEvE4typeESA_SA_;
    _ZNSt3__16vectorIPNS_6locale5facetENS_15__sso_allocatorIS3_Lj28EEEE8__appendEj;
    _ZNSt3__16vectorIPNS_6locale5facetENS_15__sso_allocatorIS3_Lj28EEEEC2Ej;
    _ZNSt3__17collateIcEC1Ej;
    _ZNSt3__17collateIcEC2Ej;
    _ZNSt3__17collateIwEC1Ej;
    _ZNSt3__17collateIwEC2Ej;
    _ZNSt3__17num_getIcNS_19istreambuf_iteratorIcNS_11char_traitsIcEEEEEC1Ej;
    _ZNSt3__17num_getIcNS_19istreambuf_iteratorIcNS_11char_traitsIcEEEEEC2Ej;
    _ZNSt3__17num_getIcNS_19istreambuf_iteratorIcNS_11char_traitsIcEEEEED0Ev;
    _ZNSt3__17num_getIcNS_19istreambuf_iteratorIcNS_11char_traitsIcEEEEED1Ev;
    _ZNSt3__17num_getIcNS_19istreambuf_iteratorIcNS_11char_traitsIcEEEEED2Ev;
    _ZNSt3__17num_getIwNS_19istreambuf_iteratorIwNS_11char_traitsIwEEEEEC1Ej;
    _ZNSt3__17num_getIwNS_19istreambuf_iteratorIwNS_11char_traitsIwEEEEEC2Ej;
    _ZNSt3__17num_getIwNS_19istreambuf_iteratorIwNS_11char_traitsIwEEEEED0Ev;
    _ZNSt3__17num_getIwNS_19istreambuf_iteratorIwNS_11char_traitsIwEEEEED1Ev;
    _ZNSt3__17num_getIwNS_19istreambuf_iteratorIwNS_11char_traitsIwEEEEED2Ev;
    _ZNSt3__17num_putIcNS_19ostreambuf_iteratorIcNS_11char_traitsIcEEEEEC1Ej;
    _ZNSt3__17num_putIcNS_19ostreambuf_iteratorIcNS_11char_traitsIcEEEEEC2Ej;
    _ZNSt3__17num_putIcNS_19ostreambuf_iteratorIcNS_11char_traitsIcEEEEED0Ev;
    _ZNSt3__17num_putIcNS_19ostreambuf_iteratorIcNS_11char_traitsIcEEEEED1Ev;
    _ZNSt3__17num_putIcNS_19ostreambuf_iteratorIcNS_11char_traitsIcEEEEED2Ev;
    _ZNSt3__17num_putIwNS_19ostreambuf_iteratorIwNS_11char_traitsIwEEEEEC1Ej;
    _ZNSt3__17num_putIwNS_19ostreambuf_iteratorIwNS_11char_traitsIwEEEEEC2Ej;
    _ZNSt3__17num_putIwNS_19ostreambuf_iteratorIwNS_11char_traitsIwEEEEED0Ev;
    _ZNSt3__17num_putIwNS_19ostreambuf_iteratorIwNS_11char_traitsIwEEEEED1Ev;
    _ZNSt3__17num_putIwNS_19ostreambuf_iteratorIwNS_11char_traitsIwEEEEED2Ev;
    _ZNSt3__18__c_node8__removeEPNS_8__i_nodeE;
    _ZNSt3__18messagesIcEC1Ej;
    _ZNSt3__18messagesIcEC2Ej;
    _ZNSt3__18messagesIcED0Ev;
    _ZNSt3__18messagesIcED1Ev;
    _ZNSt3__18messagesIcED2Ev;
    _ZNSt3__18messagesIwEC1Ej;
    _ZNSt3__18messagesIwEC2Ej;
    _ZNSt3__18messagesIwED0Ev;
    _ZNSt3__18messagesIwED1Ev;
    _ZNSt3__18messagesIwED2Ev;
    _ZNSt3__18time_getIcNS_19istreambuf_iteratorIcNS_11char_traitsIcEEEEEC1Ej;
    _ZNSt3__18time_getIcNS_19istreambuf_iteratorIcNS_11char_traitsIcEEEEEC2Ej;
    _ZNSt3__18time_getIcNS_19istreambuf_iteratorIcNS_11char_traitsIcEEEEED0Ev;
    _ZNSt3__18time_getIcNS_19istreambuf_iteratorIcNS_11char_traitsIcEEEEED1Ev;
    _ZNSt3__18time_getIcNS_19istreambuf_iteratorIcNS_11char_traitsIcEEEEED2Ev;
    _ZNSt3__18time_getIwNS_19istreambuf_iteratorIwNS_11char_traitsIwEEEEEC1Ej;
    _ZNSt3__18time_getIwNS_19istreambuf_iteratorIwNS_11char_traitsIwEEEEEC2Ej;
    _ZNSt3__18time_getIwNS_19istreambuf_iteratorIwNS_11char_traitsIwEEEEED0Ev;
    _ZNSt3__18time_getIwNS_19istreambuf_iteratorIwNS_11char_traitsIwEEEEED1Ev;
    _ZNSt3__18time_getIwNS_19istreambuf_iteratorIwNS_11char_traitsIwEEEEED2Ev;
    _ZNSt3__18time_putIcNS_19ostreambuf_iteratorIcNS_11char_traitsIcEEEEEC1Ej;
    _ZNSt3__18time_putIcNS_19ostreambuf_iteratorIcNS_11char_traitsIcEEEEEC1EPKcj;
    _ZNSt3__18time_putIcNS_19ostreambuf_iteratorIcNS_11char_traitsIcEEEEEC1ERKNS_12basic_stringIcS3_NS_9allocatorIcEEEEj;
    _ZNSt3__18time_putIcNS_19ostreambuf_iteratorIcNS_11char_traitsIcEEEEEC2Ej;
    _ZNSt3__18time_putIcNS_19ostreambuf_iteratorIcNS_11char_traitsIcEEEEEC2EPKcj;
    _ZNSt3__18time_putIcNS_19ostreambuf_iteratorIcNS_11char_traitsIcEEEEEC2ERKNS_12basic_stringIcS3_NS_9allocatorIcEEEEj;
    _ZNSt3__18time_putIcNS_19ostreambuf_iteratorIcNS_11char_traitsIcEEEEED0Ev;
    _ZNSt3__18time_putIcNS_19ostreambuf_iteratorIcNS_11char_traitsIcEEEEED1Ev;
    _ZNSt3__18time_putIcNS_19ostreambuf_iteratorIcNS_11char_traitsIcEEEEED2Ev;
    _ZNSt3__18time_putIwNS_19ostreambuf_iteratorIwNS_11char_traitsIwEEEEEC1Ej;
    _ZNSt3__18time_putIwNS_19ostreambuf_iteratorIwNS_11char_traitsIwEEEEEC1EPKcj;
    _ZNSt3__18time_putIwNS_19ostreambuf_iteratorIwNS_11char_traitsIwEEEEEC1ERKNS_12basic_stringIcNS2_IcEENS_9allocatorIcEEEEj;
    _ZNSt3__18time_putIwNS_19ostreambuf_iteratorIwNS_11char_traitsIwEEEEEC2Ej;
    _ZNSt3__18time_putIwNS_19ostreambuf_iteratorIwNS_11char_traitsIwEEEEEC2EPKcj;
    _ZNSt3__18time_putIwNS_19ostreambuf_iteratorIwNS_11char_traitsIwEEEEEC2ERKNS_12basic_stringIcNS2_IcEENS_9allocatorIcEEEEj;
    _ZNSt3__18time_putIwNS_19ostreambuf_iteratorIwNS_11char_traitsIwEEEEED0Ev;
    _ZNSt3__18time_putIwNS_19ostreambuf_iteratorIwNS_11char_traitsIwEEEEED1Ev;
    _ZNSt3__18time_putIwNS_19ostreambuf_iteratorIwNS_11char_traitsIwEEEEED2Ev;
    _ZNSt3__19basic_iosIcNS_11char_traitsIcEEE10exceptionsEj;
    _ZNSt3__19basic_iosIcNS_11char_traitsIcEEE3tieEPNS_13basic_ostreamIcS2_EE;
    _ZNSt3__19basic_iosIcNS_11char_traitsIcEEE4fillEc;
    _ZNSt3__19basic_iosIcNS_11char_traitsIcEEE4initEPNS_15basic_streambufIcS2_EE;
    _ZNSt3__19basic_iosIcNS_11char_traitsIcEEE4moveEOS3_;
    _ZNSt3__19basic_iosIcNS_11char_traitsIcEEE4moveERS3_;
    _ZNSt3__19basic_iosIcNS_11char_traitsIcEEE4swapERS3_;
    _ZNSt3__19basic_iosIcNS_11char_traitsIcEEE5clearEj;
    _ZNSt3__19basic_iosIcNS_11char_traitsIcEEE5imbueERKNS_6localeE;
    _ZNSt3__19basic_iosIcNS_11char_traitsIcEEE5rdbufEPNS_15basic_streambufIcS2_EE;
    _ZNSt3__19basic_iosIcNS_11char_traitsIcEEE8setstateEj;
    _ZNSt3__19basic_iosIcNS_11char_traitsIcEEE9set_rdbufEPNS_15basic_streambufIcS2_EE;
    _ZNSt3__19basic_iosIcNS_11char_traitsIcEEEC1EPNS_15basic_streambufIcS2_EE;
    _ZNSt3__19basic_iosIcNS_11char_traitsIcEEEC1Ev;
    _ZNSt3__19basic_iosIcNS_11char_traitsIcEEEC2EPNS_15basic_streambufIcS2_EE;
    _ZNSt3__19basic_iosIcNS_11char_traitsIcEEEC2Ev;
    _ZNSt3__19basic_iosIwNS_11char_traitsIwEEE10exceptionsEj;
    _ZNSt3__19basic_iosIwNS_11char_traitsIwEEE3tieEPNS_13basic_ostreamIwS2_EE;
    _ZNSt3__19basic_iosIwNS_11char_traitsIwEEE4fillEw;
    _ZNSt3__19basic_iosIwNS_11char_traitsIwEEE4initEPNS_15basic_streambufIwS2_EE;
    _ZNSt3__19basic_iosIwNS_11char_traitsIwEEE4moveEOS3_;
    _ZNSt3__19basic_iosIwNS_11char_traitsIwEEE4moveERS3_;
    _ZNSt3__19basic_iosIwNS_11char_traitsIwEEE4swapERS3_;
    _ZNSt3__19basic_iosIwNS_11char_traitsIwEEE5clearEj;
    _ZNSt3__19basic_iosIwNS_11char_traitsIwEEE5imbueERKNS_6localeE;
    _ZNSt3__19basic_iosIwNS_11char_traitsIwEEE5rdbufEPNS_15basic_streambufIwS2_EE;
    _ZNSt3__19basic_iosIwNS_11char_traitsIwEEE8setstateEj;
    _ZNSt3__19basic_iosIwNS_11char_traitsIwEEE9set_rdbufEPNS_15basic_streambufIwS2_EE;
    _ZNSt3__19basic_iosIwNS_11char_traitsIwEEEC1EPNS_15basic_streambufIwS2_EE;
    _ZNSt3__19basic_iosIwNS_11char_traitsIwEEEC1Ev;
    _ZNSt3__19basic_iosIwNS_11char_traitsIwEEEC2EPNS_15basic_streambufIwS2_EE;
    _ZNSt3__19basic_iosIwNS_11char_traitsIwEEEC2Ev;
    _ZNSt3__19money_getIcNS_19istreambuf_iteratorIcNS_11char_traitsIcEEEEEC1Ej;
    _ZNSt3__19money_getIcNS_19istreambuf_iteratorIcNS_11char_traitsIcEEEEEC2Ej;
    _ZNSt3__19money_getIcNS_19istreambuf_iteratorIcNS_11char_traitsIcEEEEED0Ev;
    _ZNSt3__19money_getIcNS_19istreambuf_iteratorIcNS_11char_traitsIcEEEEED1Ev;
    _ZNSt3__19money_getIcNS_19istreambuf_iteratorIcNS_11char_traitsIcEEEEED2Ev;
    _ZNSt3__19money_getIwNS_19istreambuf_iteratorIwNS_11char_traitsIwEEEEEC1Ej;
    _ZNSt3__19money_getIwNS_19istreambuf_iteratorIwNS_11char_traitsIwEEEEEC2Ej;
    _ZNSt3__19money_getIwNS_19istreambuf_iteratorIwNS_11char_traitsIwEEEEED0Ev;
    _ZNSt3__19money_getIwNS_19istreambuf_iteratorIwNS_11char_traitsIwEEEEED1Ev;
    _ZNSt3__19money_getIwNS_19istreambuf_iteratorIwNS_11char_traitsIwEEEEED2Ev;
    _ZNSt3__19money_putIcNS_19ostreambuf_iteratorIcNS_11char_traitsIcEEEEEC1Ej;
    _ZNSt3__19money_putIcNS_19ostreambuf_iteratorIcNS_11char_traitsIcEEEEEC2Ej;
    _ZNSt3__19money_putIcNS_19ostreambuf_iteratorIcNS_11char_traitsIcEEEEED0Ev;
    _ZNSt3__19money_putIcNS_19ostreambuf_iteratorIcNS_11char_traitsIcEEEEED1Ev;
    _ZNSt3__19money_putIcNS_19ostreambuf_iteratorIcNS_11char_traitsIcEEEEED2Ev;
    _ZNSt3__19money_putIwNS_19ostreambuf_iteratorIwNS_11char_traitsIwEEEEEC1Ej;
    _ZNSt3__19money_putIwNS_19ostreambuf_iteratorIwNS_11char_traitsIwEEEEEC2Ej;
    _ZNSt3__19money_putIwNS_19ostreambuf_iteratorIwNS_11char_traitsIwEEEEED0Ev;
    _ZNSt3__19money_putIwNS_19ostreambuf_iteratorIwNS_11char_traitsIwEEEEED1Ev;
    _ZNSt3__19money_putIwNS_19ostreambuf_iteratorIwNS_11char_traitsIwEEEEED2Ev;
    _ZNSt3__1L10__init_patIcEEvRNS_10money_base7patternERNS_12basic_stringIT_NS_11char_traitsIS5_EENS_9allocatorIS5_EEEEbcccS5_;
    _ZNSt3__1L10__init_patIwEEvRNS_10money_base7patternERNS_12basic_stringIT_NS_11char_traitsIS5_EENS_9allocatorIS5_EEEEbcccS5_;
    _ZNSt3__1L11state_typesE;
    _ZNSt3__1L12ucs4_to_utf8EPKjS1_RS1_PhS3_RS3_mNS_12codecvt_modeE;
    _ZNSt3__1L12utf8_to_ucs4EPKhS1_RS1_PjS3_RS3_mNS_12codecvt_modeE;
    _ZNSt3__1L13utf16_to_utf8EPKjS1_RS1_PhS3_RS3_mNS_12codecvt_modeE;
    _ZNSt3__1L13utf16_to_utf8EPKtS1_RS1_PhS3_RS3_mNS_12codecvt_modeE;
    _ZNSt3__1L13utf8_to_utf16EPKhS1_RS1_PjS3_RS3_mNS_12codecvt_modeE;
    _ZNSt3__1L13utf8_to_utf16EPKhS1_RS1_PtS3_RS3_mNS_12codecvt_modeE;
    _ZNSt3__1L15ucs4_to_utf16beEPKjS1_RS1_PhS3_RS3_mNS_12codecvt_modeE;
    _ZNSt3__1L15ucs4_to_utf16leEPKjS1_RS1_PhS3_RS3_mNS_12codecvt_modeE;
    _ZNSt3__1L15utf16be_to_ucs4EPKhS1_RS1_PjS3_RS3_mNS_12codecvt_modeE;
    _ZNSt3__1L15utf16le_to_ucs4EPKhS1_RS1_PjS3_RS3_mNS_12codecvt_modeE;
    _ZNSt3__1L19utf8_to_ucs4_lengthEPKhS1_jmNS_12codecvt_modeE;
    _ZNSt3__1L20utf8_to_utf16_lengthEPKhS1_jmNS_12codecvt_modeE;
    _ZNSt3__1L22utf16be_to_ucs4_lengthEPKhS1_jmNS_12codecvt_modeE;
    _ZNSt3__1L22utf16le_to_ucs4_lengthEPKhS1_jmNS_12codecvt_modeE;
    _ZNSt3__1L5__cinE;
    _ZNSt3__1L6__cerrE;
    _ZNSt3__1L6__coutE;
    _ZNSt3__1L6__wcinE;
    _ZNSt3__1L7__wcerrE;
    _ZNSt3__1L7__wcoutE;
    _ZSt11__terminatePFvvE;
    _ZSt12__unexpectedPFvvE;
    _ZThn8_NKSt3__115time_get_bynameIcNS_19istreambuf_iteratorIcNS_11char_traitsIcEEEEE3__cEv;
    _ZThn8_NKSt3__115time_get_bynameIcNS_19istreambuf_iteratorIcNS_11char_traitsIcEEEEE3__rEv;
    _ZThn8_NKSt3__115time_get_bynameIcNS_19istreambuf_iteratorIcNS_11char_traitsIcEEEEE3__xEv;
    _ZThn8_NKSt3__115time_get_bynameIcNS_19istreambuf_iteratorIcNS_11char_traitsIcEEEEE3__XEv;
    _ZThn8_NKSt3__115time_get_bynameIcNS_19istreambuf_iteratorIcNS_11char_traitsIcEEEEE7__am_pmEv;
    _ZThn8_NKSt3__115time_get_bynameIcNS_19istreambuf_iteratorIcNS_11char_traitsIcEEEEE7__weeksEv;
    _ZThn8_NKSt3__115time_get_bynameIcNS_19istreambuf_iteratorIcNS_11char_traitsIcEEEEE8__monthsEv;
    _ZThn8_NKSt3__115time_get_bynameIwNS_19istreambuf_iteratorIwNS_11char_traitsIwEEEEE3__cEv;
    _ZThn8_NKSt3__115time_get_bynameIwNS_19istreambuf_iteratorIwNS_11char_traitsIwEEEEE3__rEv;
    _ZThn8_NKSt3__115time_get_bynameIwNS_19istreambuf_iteratorIwNS_11char_traitsIwEEEEE3__xEv;
    _ZThn8_NKSt3__115time_get_bynameIwNS_19istreambuf_iteratorIwNS_11char_traitsIwEEEEE3__XEv;
    _ZThn8_NKSt3__115time_get_bynameIwNS_19istreambuf_iteratorIwNS_11char_traitsIwEEEEE7__am_pmEv;
    _ZThn8_NKSt3__115time_get_bynameIwNS_19istreambuf_iteratorIwNS_11char_traitsIwEEEEE7__weeksEv;
    _ZThn8_NKSt3__115time_get_bynameIwNS_19istreambuf_iteratorIwNS_11char_traitsIwEEEEE8__monthsEv;
    _ZTIN10__cxxabiv116__shim_type_infoE;
    _ZTIN9libunwind12UnwindCursorINS_17LocalAddressSpaceENS_13Registers_armEEE;
    _ZTIN9libunwind20AbstractUnwindCursorE;
    _ZTINSt3__110__stdinbufIcEE;
    _ZTINSt3__110__stdinbufIwEE;
    _ZTINSt3__111__stdoutbufIcEE;
    _ZTINSt3__111__stdoutbufIwEE;
    _ZTINSt3__112__do_messageE;
    _ZTINSt3__115__time_get_tempIcEE;
    _ZTINSt3__115__time_get_tempIwEE;
    _ZTINSt3__119__iostream_categoryE;
    _ZTINSt3__123__future_error_categoryE;
    _ZTINSt3__123__system_error_categoryE;
    _ZTINSt3__124__generic_error_categoryE;
    _ZTINSt3__16locale5__impE;
    _ZTSN10__cxxabiv116__shim_type_infoE;
    _ZTSN9libunwind12UnwindCursorINS_17LocalAddressSpaceENS_13Registers_armEEE;
    _ZTSN9libunwind20AbstractUnwindCursorE;
    _ZTSNSt3__110__stdinbufIcEE;
    _ZTSNSt3__110__stdinbufIwEE;
    _ZTSNSt3__111__stdoutbufIcEE;
    _ZTSNSt3__111__stdoutbufIwEE;
    _ZTSNSt3__112__do_messageE;
    _ZTSNSt3__115__time_get_tempIcEE;
    _ZTSNSt3__115__time_get_tempIwEE;
    _ZTSNSt3__119__iostream_categoryE;
    _ZTSNSt3__123__future_error_categoryE;
    _ZTSNSt3__123__system_error_categoryE;
    _ZTSNSt3__124__generic_error_categoryE;
    _ZTSNSt3__16locale5__impE;
    _ZTVN10__cxxabiv116__shim_type_infoE;
    _ZTVN9libunwind12UnwindCursorINS_17LocalAddressSpaceENS_13Registers_armEEE;
    _ZTVNSt3__110__stdinbufIcEE;
    _ZTVNSt3__110__stdinbufIwEE;
    _ZTVNSt3__111__stdoutbufIcEE;
    _ZTVNSt3__111__stdoutbufIwEE;
    _ZTVNSt3__112__do_messageE;
    _ZTVNSt3__115__time_get_tempIcEE;
    _ZTVNSt3__115__time_get_tempIwEE;
    _ZTVNSt3__119__iostream_categoryE;
    _ZTVNSt3__123__future_error_categoryE;
    _ZTVNSt3__123__system_error_categoryE;
    _ZTVNSt3__124__generic_error_categoryE;
    _ZTVNSt3__16locale5__impE;
    _ZZNKSt3__18time_getIcNS_19istreambuf_iteratorIcNS_11char_traitsIcEEEEE11do_get_timeES4_S4_RNS_8ios_baseERjP2tmE5__fmt;
    _ZZNKSt3__18time_getIcNS_19istreambuf_iteratorIcNS_11char_traitsIcEEEEE6do_getES4_S4_RNS_8ios_baseERjP2tmccE4__fm;
    _ZZNKSt3__18time_getIcNS_19istreambuf_iteratorIcNS_11char_traitsIcEEEEE6do_getES4_S4_RNS_8ios_baseERjP2tmccE4__fm_0;
    _ZZNKSt3__18time_getIcNS_19istreambuf_iteratorIcNS_11char_traitsIcEEEEE6do_getES4_S4_RNS_8ios_baseERjP2tmccE4__fm_1;
    _ZZNKSt3__18time_getIcNS_19istreambuf_iteratorIcNS_11char_traitsIcEEEEE6do_getES4_S4_RNS_8ios_baseERjP2tmccE4__fm_2;
    _ZZNKSt3__18time_getIcNS_19istreambuf_iteratorIcNS_11char_traitsIcEEEEE6do_getES4_S4_RNS_8ios_baseERjP2tmccE4__fm_3;
    _ZZNKSt3__18time_getIwNS_19istreambuf_iteratorIwNS_11char_traitsIwEEEEE11do_get_timeES4_S4_RNS_8ios_baseERjP2tmE5__fmt;
    _ZZNKSt3__18time_getIwNS_19istreambuf_iteratorIwNS_11char_traitsIwEEEEE6do_getES4_S4_RNS_8ios_baseERjP2tmccE4__fm;
    _ZZNKSt3__18time_getIwNS_19istreambuf_iteratorIwNS_11char_traitsIwEEEEE6do_getES4_S4_RNS_8ios_baseERjP2tmccE4__fm_0;
    _ZZNKSt3__18time_getIwNS_19istreambuf_iteratorIwNS_11char_traitsIwEEEEE6do_getES4_S4_RNS_8ios_baseERjP2tmccE4__fm_1;
    _ZZNKSt3__18time_getIwNS_19istreambuf_iteratorIwNS_11char_traitsIwEEEEE6do_getES4_S4_RNS_8ios_baseERjP2tmccE4__fm_2;
    _ZZNKSt3__18time_getIwNS_19istreambuf_iteratorIwNS_11char_traitsIwEEEEE6do_getES4_S4_RNS_8ios_baseERjP2tmccE4__fm_3;
    _ZZNKSt3__19money_getIcNS_19istreambuf_iteratorIcNS_11char_traitsIcEEEEE6do_getES4_S4_bRNS_8ios_baseERjReE5__src;
    _ZZNKSt3__19money_getIwNS_19istreambuf_iteratorIwNS_11char_traitsIwEEEEE6do_getES4_S4_bRNS_8ios_baseERjReE5__src;
    _ZZNSt3__16locale5__imp11make_globalEvE3buf;
    _ZZNSt3__16locale5__imp12make_classicEvE3buf;
    _ZZNSt3__18ios_base15sync_with_stdioEbE14previous_state;

    /* ToDo: missing from 64-bit */
    _ZGVZNSt3__112__get_sp_mutEPKvE4muts;
    _ZGVZNSt3__112__rs_defaultclEvE6__rs_g;
    _ZGVZNSt3__115future_categoryEvE3__f;
    _ZGVZNSt3__115system_categoryEvE1s;
    _ZGVZNSt3__116generic_categoryEvE1s;
    _ZGVZNSt3__117iostream_categoryEvE1s;
    _ZGVZNSt3__119__thread_local_dataEvE3__p;
    _ZGVZNSt3__16__clocEvE6result;
    _ZGVZNSt3__16locale7classicEvE1c;
    _ZGVZNSt3__16locale8__globalEvE1g;
    _ZGVZNSt3__18__get_dbEvE2db;
    _ZGVZNSt3__1L10init_am_pmEvE5am_pm;
    _ZGVZNSt3__1L10init_weeksEvE5weeks;
    _ZGVZNSt3__1L11init_monthsEvE6months;
    _ZGVZNSt3__1L11init_wam_pmEvE5am_pm;
    _ZGVZNSt3__1L11init_wweeksEvE5weeks;
    _ZGVZNSt3__1L12init_wmonthsEvE6months;
    _ZN10__cxxabiv114call_terminateEbP17_Unwind_Exception;
    _ZN10__cxxabiv127dependent_exception_cleanupE19_Unwind_Reason_CodeP17_Unwind_Exception;
    _ZN10__cxxabiv1L22exception_cleanup_funcE19_Unwind_Reason_CodeP17_Unwind_Exception;
    _ZN10__cxxabiv1L9do_mallocEm;
    _Znam;
    _ZnamRKSt9nothrow_t;
    _ZNKSt3__111__libcpp_db15__subscriptableEPKvl;
    _ZNKSt3__111__libcpp_db9__addableEPKvl;
    _ZNKSt3__112basic_stringIcNS_11char_traitsIcEENS_9allocatorIcEEE12find_last_ofEcm;
    _ZNKSt3__112basic_stringIcNS_11char_traitsIcEENS_9allocatorIcEEE12find_last_ofEPKcm;
    _ZNKSt3__112basic_stringIcNS_11char_traitsIcEENS_9allocatorIcEEE12find_last_ofEPKcmm;
    _ZNKSt3__112basic_stringIcNS_11char_traitsIcEENS_9allocatorIcEEE12find_last_ofERKS5_m;
    _ZNKSt3__112basic_stringIcNS_11char_traitsIcEENS_9allocatorIcEEE13find_first_ofEcm;
    _ZNKSt3__112basic_stringIcNS_11char_traitsIcEENS_9allocatorIcEEE13find_first_ofEPKcm;
    _ZNKSt3__112basic_stringIcNS_11char_traitsIcEENS_9allocatorIcEEE13find_first_ofEPKcmm;
    _ZNKSt3__112basic_stringIcNS_11char_traitsIcEENS_9allocatorIcEEE13find_first_ofERKS5_m;
    _ZNKSt3__112basic_stringIcNS_11char_traitsIcEENS_9allocatorIcEEE16find_last_not_ofEcm;
    _ZNKSt3__112basic_stringIcNS_11char_traitsIcEENS_9allocatorIcEEE16find_last_not_ofEPKcm;
    _ZNKSt3__112basic_stringIcNS_11char_traitsIcEENS_9allocatorIcEEE16find_last_not_ofEPKcmm;
    _ZNKSt3__112basic_stringIcNS_11char_traitsIcEENS_9allocatorIcEEE16find_last_not_ofERKS5_m;
    _ZNKSt3__112basic_stringIcNS_11char_traitsIcEENS_9allocatorIcEEE17find_first_not_ofEcm;
    _ZNKSt3__112basic_stringIcNS_11char_traitsIcEENS_9allocatorIcEEE17find_first_not_ofEPKcm;
    _ZNKSt3__112basic_stringIcNS_11char_traitsIcEENS_9allocatorIcEEE17find_first_not_ofEPKcmm;
    _ZNKSt3__112basic_stringIcNS_11char_traitsIcEENS_9allocatorIcEEE17find_first_not_ofERKS5_m;
    _ZNKSt3__112basic_stringIcNS_11char_traitsIcEENS_9allocatorIcEEE2atEm;
    _ZNKSt3__112basic_stringIcNS_11char_traitsIcEENS_9allocatorIcEEE4copyEPcmm;
    _ZNKSt3__112basic_stringIcNS_11char_traitsIcEENS_9allocatorIcEEE4findEcm;
    _ZNKSt3__112basic_stringIcNS_11char_traitsIcEENS_9allocatorIcEEE4findEPKcm;
    _ZNKSt3__112basic_stringIcNS_11char_traitsIcEENS_9allocatorIcEEE4findEPKcmm;
    _ZNKSt3__112basic_stringIcNS_11char_traitsIcEENS_9allocatorIcEEE4findERKS5_m;
    _ZNKSt3__112basic_stringIcNS_11char_traitsIcEENS_9allocatorIcEEE5rfindEcm;
    _ZNKSt3__112basic_stringIcNS_11char_traitsIcEENS_9allocatorIcEEE5rfindEPKcm;
    _ZNKSt3__112basic_stringIcNS_11char_traitsIcEENS_9allocatorIcEEE5rfindEPKcmm;
    _ZNKSt3__112basic_stringIcNS_11char_traitsIcEENS_9allocatorIcEEE5rfindERKS5_m;
    _ZNKSt3__112basic_stringIcNS_11char_traitsIcEENS_9allocatorIcEEE6substrEmm;
    _ZNKSt3__112basic_stringIcNS_11char_traitsIcEENS_9allocatorIcEEE7compareEmmPKc;
    _ZNKSt3__112basic_stringIcNS_11char_traitsIcEENS_9allocatorIcEEE7compareEmmPKcm;
    _ZNKSt3__112basic_stringIcNS_11char_traitsIcEENS_9allocatorIcEEE7compareEmmRKS5_;
    _ZNKSt3__112basic_stringIcNS_11char_traitsIcEENS_9allocatorIcEEE7compareEmmRKS5_mm;
    _ZNKSt3__112basic_stringIcNS_11char_traitsIcEENS_9allocatorIcEEEixEm;
    _ZNKSt3__112basic_stringIwNS_11char_traitsIwEENS_9allocatorIwEEE12find_last_ofEPKwm;
    _ZNKSt3__112basic_stringIwNS_11char_traitsIwEENS_9allocatorIwEEE12find_last_ofEPKwmm;
    _ZNKSt3__112basic_stringIwNS_11char_traitsIwEENS_9allocatorIwEEE12find_last_ofERKS5_m;
    _ZNKSt3__112basic_stringIwNS_11char_traitsIwEENS_9allocatorIwEEE12find_last_ofEwm;
    _ZNKSt3__112basic_stringIwNS_11char_traitsIwEENS_9allocatorIwEEE13find_first_ofEPKwm;
    _ZNKSt3__112basic_stringIwNS_11char_traitsIwEENS_9allocatorIwEEE13find_first_ofEPKwmm;
    _ZNKSt3__112basic_stringIwNS_11char_traitsIwEENS_9allocatorIwEEE13find_first_ofERKS5_m;
    _ZNKSt3__112basic_stringIwNS_11char_traitsIwEENS_9allocatorIwEEE13find_first_ofEwm;
    _ZNKSt3__112basic_stringIwNS_11char_traitsIwEENS_9allocatorIwEEE16find_last_not_ofEPKwm;
    _ZNKSt3__112basic_stringIwNS_11char_traitsIwEENS_9allocatorIwEEE16find_last_not_ofEPKwmm;
    _ZNKSt3__112basic_stringIwNS_11char_traitsIwEENS_9allocatorIwEEE16find_last_not_ofERKS5_m;
    _ZNKSt3__112basic_stringIwNS_11char_traitsIwEENS_9allocatorIwEEE16find_last_not_ofEwm;
    _ZNKSt3__112basic_stringIwNS_11char_traitsIwEENS_9allocatorIwEEE17find_first_not_ofEPKwm;
    _ZNKSt3__112basic_stringIwNS_11char_traitsIwEENS_9allocatorIwEEE17find_first_not_ofEPKwmm;
    _ZNKSt3__112basic_stringIwNS_11char_traitsIwEENS_9allocatorIwEEE17find_first_not_ofERKS5_m;
    _ZNKSt3__112basic_stringIwNS_11char_traitsIwEENS_9allocatorIwEEE17find_first_not_ofEwm;
    _ZNKSt3__112basic_stringIwNS_11char_traitsIwEENS_9allocatorIwEEE2atEm;
    _ZNKSt3__112basic_stringIwNS_11char_traitsIwEENS_9allocatorIwEEE4copyEPwmm;
    _ZNKSt3__112basic_stringIwNS_11char_traitsIwEENS_9allocatorIwEEE4findEPKwm;
    _ZNKSt3__112basic_stringIwNS_11char_traitsIwEENS_9allocatorIwEEE4findEPKwmm;
    _ZNKSt3__112basic_stringIwNS_11char_traitsIwEENS_9allocatorIwEEE4findERKS5_m;
    _ZNKSt3__112basic_stringIwNS_11char_traitsIwEENS_9allocatorIwEEE4findEwm;
    _ZNKSt3__112basic_stringIwNS_11char_traitsIwEENS_9allocatorIwEEE5rfindEPKwm;
    _ZNKSt3__112basic_stringIwNS_11char_traitsIwEENS_9allocatorIwEEE5rfindEPKwmm;
    _ZNKSt3__112basic_stringIwNS_11char_traitsIwEENS_9allocatorIwEEE5rfindERKS5_m;
    _ZNKSt3__112basic_stringIwNS_11char_traitsIwEENS_9allocatorIwEEE5rfindEwm;
    _ZNKSt3__112basic_stringIwNS_11char_traitsIwEENS_9allocatorIwEEE6substrEmm;
    _ZNKSt3__112basic_stringIwNS_11char_traitsIwEENS_9allocatorIwEEE7compareEmmPKw;
    _ZNKSt3__112basic_stringIwNS_11char_traitsIwEENS_9allocatorIwEEE7compareEmmPKwm;
    _ZNKSt3__112basic_stringIwNS_11char_traitsIwEENS_9allocatorIwEEE7compareEmmRKS5_;
    _ZNKSt3__112basic_stringIwNS_11char_traitsIwEENS_9allocatorIwEEE7compareEmmRKS5_mm;
    _ZNKSt3__112basic_stringIwNS_11char_traitsIwEENS_9allocatorIwEEEixEm;
    _ZNKSt3__114__codecvt_utf8IDiE9do_lengthER9mbstate_tPKcS5_m;
    _ZNKSt3__114__codecvt_utf8IDsE9do_lengthER9mbstate_tPKcS5_m;
    _ZNKSt3__114__codecvt_utf8IwE9do_lengthER9mbstate_tPKcS5_m;
    _ZNKSt3__115__codecvt_utf16IDiLb0EE9do_lengthER9mbstate_tPKcS5_m;
    _ZNKSt3__115__codecvt_utf16IDiLb1EE9do_lengthER9mbstate_tPKcS5_m;
    _ZNKSt3__115__codecvt_utf16IDsLb0EE9do_lengthER9mbstate_tPKcS5_m;
    _ZNKSt3__115__codecvt_utf16IDsLb1EE9do_lengthER9mbstate_tPKcS5_m;
    _ZNKSt3__115__codecvt_utf16IwLb0EE9do_lengthER9mbstate_tPKcS5_m;
    _ZNKSt3__115__codecvt_utf16IwLb1EE9do_lengthER9mbstate_tPKcS5_m;
    _ZNKSt3__120__codecvt_utf8_utf16IDiE9do_lengthER9mbstate_tPKcS5_m;
    _ZNKSt3__120__codecvt_utf8_utf16IDsE9do_lengthER9mbstate_tPKcS5_m;
    _ZNKSt3__120__codecvt_utf8_utf16IwE9do_lengthER9mbstate_tPKcS5_m;
    _ZNKSt3__17codecvtIcc9mbstate_tE9do_lengthERS1_PKcS5_m;
    _ZNKSt3__17codecvtIDic9mbstate_tE9do_lengthERS1_PKcS5_m;
    _ZNKSt3__17codecvtIDsc9mbstate_tE9do_lengthERS1_PKcS5_m;
    _ZNKSt3__17codecvtIwc9mbstate_tE9do_lengthERS1_PKcS5_m;
    _ZNKSt3__18messagesIcE3getEliiRKNS_12basic_stringIcNS_11char_traitsIcEENS_9allocatorIcEEEE;
    _ZNKSt3__18messagesIcE5closeEl;
    _ZNKSt3__18messagesIcE6do_getEliiRKNS_12basic_stringIcNS_11char_traitsIcEENS_9allocatorIcEEEE;
    _ZNKSt3__18messagesIcE8do_closeEl;
    _ZNKSt3__18messagesIwE3getEliiRKNS_12basic_stringIwNS_11char_traitsIwEENS_9allocatorIwEEEE;
    _ZNKSt3__18messagesIwE5closeEl;
    _ZNKSt3__18messagesIwE6do_getEliiRKNS_12basic_stringIwNS_11char_traitsIwEENS_9allocatorIwEEEE;
    _ZNKSt3__18messagesIwE8do_closeEl;
    _ZNSt3__110moneypunctIcLb0EEC1Em;
    _ZNSt3__110moneypunctIcLb0EEC2Em;
    _ZNSt3__110moneypunctIcLb1EEC1Em;
    _ZNSt3__110moneypunctIcLb1EEC2Em;
    _ZNSt3__110moneypunctIwLb0EEC1Em;
    _ZNSt3__110moneypunctIwLb0EEC2Em;
    _ZNSt3__110moneypunctIwLb1EEC1Em;
    _ZNSt3__110moneypunctIwLb1EEC2Em;
    _ZNSt3__110__sscanf_lEPKcP10__locale_tS1_z;
    _ZNSt3__110__stdinbufIwE9pbackfailEj;
    _ZNSt3__111__stdoutbufIcE6xsputnEPKcl;
    _ZNSt3__111__stdoutbufIwE6xsputnEPKwl;
    _ZNSt3__111__stdoutbufIwE8overflowEj;
    _ZNSt3__111this_thread9sleep_forERKNS_6chrono8durationIxNS_5ratioILl1ELl1000000000EEEEE;
    _ZNSt3__112__asprintf_lEPPcP10__locale_tPKcz;
    _ZNSt3__112basic_stringIcNS_11char_traitsIcEENS_9allocatorIcEEE10__set_sizeEm;
    _ZNSt3__112basic_stringIcNS_11char_traitsIcEENS_9allocatorIcEEE11__recommendEm;
    _ZNSt3__112basic_stringIcNS_11char_traitsIcEENS_9allocatorIcEEE14__erase_to_endEm;
    _ZNSt3__112basic_stringIcNS_11char_traitsIcEENS_9allocatorIcEEE14__set_long_capEm;
    _ZNSt3__112basic_stringIcNS_11char_traitsIcEENS_9allocatorIcEEE15__set_long_sizeEm;
    _ZNSt3__112basic_stringIcNS_11char_traitsIcEENS_9allocatorIcEEE16__set_short_sizeEm;
    _ZNSt3__112basic_stringIcNS_11char_traitsIcEENS_9allocatorIcEEE21__grow_by_and_replaceEmmmmmmPKc;
    _ZNSt3__112basic_stringIcNS_11char_traitsIcEENS_9allocatorIcEEE27__invalidate_iterators_pastEm;
    _ZNSt3__112basic_stringIcNS_11char_traitsIcEENS_9allocatorIcEEE2atEm;
    _ZNSt3__112basic_stringIcNS_11char_traitsIcEENS_9allocatorIcEEE5eraseEmm;
    _ZNSt3__112basic_stringIcNS_11char_traitsIcEENS_9allocatorIcEEE6appendEmc;
    _ZNSt3__112basic_stringIcNS_11char_traitsIcEENS_9allocatorIcEEE6appendEPKcm;
    _ZNSt3__112basic_stringIcNS_11char_traitsIcEENS_9allocatorIcEEE6appendERKS5_mm;
    _ZNSt3__112basic_stringIcNS_11char_traitsIcEENS_9allocatorIcEEE6assignEmc;
    _ZNSt3__112basic_stringIcNS_11char_traitsIcEENS_9allocatorIcEEE6assignEPKcm;
    _ZNSt3__112basic_stringIcNS_11char_traitsIcEENS_9allocatorIcEEE6assignERKS5_mm;
    _ZNSt3__112basic_stringIcNS_11char_traitsIcEENS_9allocatorIcEEE6__initEmc;
    _ZNSt3__112basic_stringIcNS_11char_traitsIcEENS_9allocatorIcEEE6__initEPKcm;
    _ZNSt3__112basic_stringIcNS_11char_traitsIcEENS_9allocatorIcEEE6__initEPKcmm;
    _ZNSt3__112basic_stringIcNS_11char_traitsIcEENS_9allocatorIcEEE6insertEmmc;
    _ZNSt3__112basic_stringIcNS_11char_traitsIcEENS_9allocatorIcEEE6insertEmPKc;
    _ZNSt3__112basic_stringIcNS_11char_traitsIcEENS_9allocatorIcEEE6insertEmPKcm;
    _ZNSt3__112basic_stringIcNS_11char_traitsIcEENS_9allocatorIcEEE6insertEmRKS5_;
    _ZNSt3__112basic_stringIcNS_11char_traitsIcEENS_9allocatorIcEEE6insertEmRKS5_mm;
    _ZNSt3__112basic_stringIcNS_11char_traitsIcEENS_9allocatorIcEEE6insertENS_11__wrap_iterIPKcEEmc;
    _ZNSt3__112basic_stringIcNS_11char_traitsIcEENS_9allocatorIcEEE6resizeEm;
    _ZNSt3__112basic_stringIcNS_11char_traitsIcEENS_9allocatorIcEEE6resizeEmc;
    _ZNSt3__112basic_stringIcNS_11char_traitsIcEENS_9allocatorIcEEE7replaceEmmmc;
    _ZNSt3__112basic_stringIcNS_11char_traitsIcEENS_9allocatorIcEEE7replaceEmmPKc;
    _ZNSt3__112basic_stringIcNS_11char_traitsIcEENS_9allocatorIcEEE7replaceEmmPKcm;
    _ZNSt3__112basic_stringIcNS_11char_traitsIcEENS_9allocatorIcEEE7replaceEmmRKS5_;
    _ZNSt3__112basic_stringIcNS_11char_traitsIcEENS_9allocatorIcEEE7replaceEmmRKS5_mm;
    _ZNSt3__112basic_stringIcNS_11char_traitsIcEENS_9allocatorIcEEE7replaceENS_11__wrap_iterIPKcEES9_mc;
    _ZNSt3__112basic_stringIcNS_11char_traitsIcEENS_9allocatorIcEEE7replaceENS_11__wrap_iterIPKcEES9_S8_m;
    _ZNSt3__112basic_stringIcNS_11char_traitsIcEENS_9allocatorIcEEE7reserveEm;
    _ZNSt3__112basic_stringIcNS_11char_traitsIcEENS_9allocatorIcEEE9__grow_byEmmmmmm;
    _ZNSt3__112basic_stringIcNS_11char_traitsIcEENS_9allocatorIcEEEC1Emc;
    _ZNSt3__112basic_stringIcNS_11char_traitsIcEENS_9allocatorIcEEEC1EmcRKS4_;
    _ZNSt3__112basic_stringIcNS_11char_traitsIcEENS_9allocatorIcEEEC1EPKcm;
    _ZNSt3__112basic_stringIcNS_11char_traitsIcEENS_9allocatorIcEEEC1EPKcmRKS4_;
    _ZNSt3__112basic_stringIcNS_11char_traitsIcEENS_9allocatorIcEEEC1ERKS5_mmRKS4_;
    _ZNSt3__112basic_stringIcNS_11char_traitsIcEENS_9allocatorIcEEEC2Emc;
    _ZNSt3__112basic_stringIcNS_11char_traitsIcEENS_9allocatorIcEEEC2EmcRKS4_;
    _ZNSt3__112basic_stringIcNS_11char_traitsIcEENS_9allocatorIcEEEC2EPKcm;
    _ZNSt3__112basic_stringIcNS_11char_traitsIcEENS_9allocatorIcEEEC2EPKcmRKS4_;
    _ZNSt3__112basic_stringIcNS_11char_traitsIcEENS_9allocatorIcEEEC2ERKS5_mmRKS4_;
    _ZNSt3__112basic_stringIcNS_11char_traitsIcEENS_9allocatorIcEEEixEm;
    _ZNSt3__112basic_stringIwNS_11char_traitsIwEENS_9allocatorIwEEE10__set_sizeEm;
    _ZNSt3__112basic_stringIwNS_11char_traitsIwEENS_9allocatorIwEEE11__recommendEm;
    _ZNSt3__112basic_stringIwNS_11char_traitsIwEENS_9allocatorIwEEE14__erase_to_endEm;
    _ZNSt3__112basic_stringIwNS_11char_traitsIwEENS_9allocatorIwEEE14__set_long_capEm;
    _ZNSt3__112basic_stringIwNS_11char_traitsIwEENS_9allocatorIwEEE15__set_long_sizeEm;
    _ZNSt3__112basic_stringIwNS_11char_traitsIwEENS_9allocatorIwEEE16__set_short_sizeEm;
    _ZNSt3__112basic_stringIwNS_11char_traitsIwEENS_9allocatorIwEEE21__grow_by_and_replaceEmmmmmmPKw;
    _ZNSt3__112basic_stringIwNS_11char_traitsIwEENS_9allocatorIwEEE27__invalidate_iterators_pastEm;
    _ZNSt3__112basic_stringIwNS_11char_traitsIwEENS_9allocatorIwEEE2atEm;
    _ZNSt3__112basic_stringIwNS_11char_traitsIwEENS_9allocatorIwEEE5eraseEmm;
    _ZNSt3__112basic_stringIwNS_11char_traitsIwEENS_9allocatorIwEEE6appendEmw;
    _ZNSt3__112basic_stringIwNS_11char_traitsIwEENS_9allocatorIwEEE6appendEPKwm;
    _ZNSt3__112basic_stringIwNS_11char_traitsIwEENS_9allocatorIwEEE6appendERKS5_mm;
    _ZNSt3__112basic_stringIwNS_11char_traitsIwEENS_9allocatorIwEEE6assignEmw;
    _ZNSt3__112basic_stringIwNS_11char_traitsIwEENS_9allocatorIwEEE6assignEPKwm;
    _ZNSt3__112basic_stringIwNS_11char_traitsIwEENS_9allocatorIwEEE6assignERKS5_mm;
    _ZNSt3__112basic_stringIwNS_11char_traitsIwEENS_9allocatorIwEEE6__initEmw;
    _ZNSt3__112basic_stringIwNS_11char_traitsIwEENS_9allocatorIwEEE6__initEPKwm;
    _ZNSt3__112basic_stringIwNS_11char_traitsIwEENS_9allocatorIwEEE6__initEPKwmm;
    _ZNSt3__112basic_stringIwNS_11char_traitsIwEENS_9allocatorIwEEE6insertEmmw;
    _ZNSt3__112basic_stringIwNS_11char_traitsIwEENS_9allocatorIwEEE6insertEmPKw;
    _ZNSt3__112basic_stringIwNS_11char_traitsIwEENS_9allocatorIwEEE6insertEmPKwm;
    _ZNSt3__112basic_stringIwNS_11char_traitsIwEENS_9allocatorIwEEE6insertEmRKS5_;
    _ZNSt3__112basic_stringIwNS_11char_traitsIwEENS_9allocatorIwEEE6insertEmRKS5_mm;
    _ZNSt3__112basic_stringIwNS_11char_traitsIwEENS_9allocatorIwEEE6insertENS_11__wrap_iterIPKwEEmw;
    _ZNSt3__112basic_stringIwNS_11char_traitsIwEENS_9allocatorIwEEE6resizeEm;
    _ZNSt3__112basic_stringIwNS_11char_traitsIwEENS_9allocatorIwEEE6resizeEmw;
    _ZNSt3__112basic_stringIwNS_11char_traitsIwEENS_9allocatorIwEEE7replaceEmmmw;
    _ZNSt3__112basic_stringIwNS_11char_traitsIwEENS_9allocatorIwEEE7replaceEmmPKw;
    _ZNSt3__112basic_stringIwNS_11char_traitsIwEENS_9allocatorIwEEE7replaceEmmPKwm;
    _ZNSt3__112basic_stringIwNS_11char_traitsIwEENS_9allocatorIwEEE7replaceEmmRKS5_;
    _ZNSt3__112basic_stringIwNS_11char_traitsIwEENS_9allocatorIwEEE7replaceEmmRKS5_mm;
    _ZNSt3__112basic_stringIwNS_11char_traitsIwEENS_9allocatorIwEEE7replaceENS_11__wrap_iterIPKwEES9_mw;
    _ZNSt3__112basic_stringIwNS_11char_traitsIwEENS_9allocatorIwEEE7replaceENS_11__wrap_iterIPKwEES9_S8_m;
    _ZNSt3__112basic_stringIwNS_11char_traitsIwEENS_9allocatorIwEEE7reserveEm;
    _ZNSt3__112basic_stringIwNS_11char_traitsIwEENS_9allocatorIwEEE9__grow_byEmmmmmm;
    _ZNSt3__112basic_stringIwNS_11char_traitsIwEENS_9allocatorIwEEEC1Emw;
    _ZNSt3__112basic_stringIwNS_11char_traitsIwEENS_9allocatorIwEEEC1EmwRKS4_;
    _ZNSt3__112basic_stringIwNS_11char_traitsIwEENS_9allocatorIwEEEC1EPKwm;
    _ZNSt3__112basic_stringIwNS_11char_traitsIwEENS_9allocatorIwEEEC1EPKwmRKS4_;
    _ZNSt3__112basic_stringIwNS_11char_traitsIwEENS_9allocatorIwEEEC1ERKS5_mmRKS4_;
    _ZNSt3__112basic_stringIwNS_11char_traitsIwEENS_9allocatorIwEEEC2Emw;
    _ZNSt3__112basic_stringIwNS_11char_traitsIwEENS_9allocatorIwEEEC2EmwRKS4_;
    _ZNSt3__112basic_stringIwNS_11char_traitsIwEENS_9allocatorIwEEEC2EPKwm;
    _ZNSt3__112basic_stringIwNS_11char_traitsIwEENS_9allocatorIwEEEC2EPKwmRKS4_;
    _ZNSt3__112basic_stringIwNS_11char_traitsIwEENS_9allocatorIwEEEC2ERKS5_mmRKS4_;
    _ZNSt3__112basic_stringIwNS_11char_traitsIwEENS_9allocatorIwEEEixEm;
    _ZNSt3__112ctype_bynameIcEC1EPKcm;
    _ZNSt3__112ctype_bynameIcEC1ERKNS_12basic_stringIcNS_11char_traitsIcEENS_9allocatorIcEEEEm;
    _ZNSt3__112ctype_bynameIcEC2EPKcm;
    _ZNSt3__112ctype_bynameIcEC2ERKNS_12basic_stringIcNS_11char_traitsIcEENS_9allocatorIcEEEEm;
    _ZNSt3__112ctype_bynameIwEC1EPKcm;
    _ZNSt3__112ctype_bynameIwEC1ERKNS_12basic_stringIcNS_11char_traitsIcEENS_9allocatorIcEEEEm;
    _ZNSt3__112ctype_bynameIwEC2EPKcm;
    _ZNSt3__112ctype_bynameIwEC2ERKNS_12basic_stringIcNS_11char_traitsIcEENS_9allocatorIcEEEEm;
    _ZNSt3__112__next_primeEm;
    _ZNSt3__112__snprintf_lEPcmP10__locale_tPKcz;
    _ZNSt3__112strstreambuf6__initEPclS1_;
    _ZNSt3__112strstreambufC1El;
    _ZNSt3__112strstreambufC1EPalS1_;
    _ZNSt3__112strstreambufC1EPclS1_;
    _ZNSt3__112strstreambufC1EPFPvmEPFvS1_E;
    _ZNSt3__112strstreambufC1EPhlS1_;
    _ZNSt3__112strstreambufC1EPKal;
    _ZNSt3__112strstreambufC1EPKcl;
    _ZNSt3__112strstreambufC1EPKhl;
    _ZNSt3__112strstreambufC2El;
    _ZNSt3__112strstreambufC2EPalS1_;
    _ZNSt3__112strstreambufC2EPclS1_;
    _ZNSt3__112strstreambufC2EPFPvmEPFvS1_E;
    _ZNSt3__112strstreambufC2EPhlS1_;
    _ZNSt3__112strstreambufC2EPKal;
    _ZNSt3__112strstreambufC2EPKcl;
    _ZNSt3__112strstreambufC2EPKhl;
    _ZNSt3__113basic_istreamIcNS_11char_traitsIcEEE3getEPcl;
    _ZNSt3__113basic_istreamIcNS_11char_traitsIcEEE3getEPclc;
    _ZNSt3__113basic_istreamIcNS_11char_traitsIcEEE4readEPcl;
    _ZNSt3__113basic_istreamIcNS_11char_traitsIcEEE6ignoreEli;
    _ZNSt3__113basic_istreamIcNS_11char_traitsIcEEE7getlineEPcl;
    _ZNSt3__113basic_istreamIcNS_11char_traitsIcEEE7getlineEPclc;
    _ZNSt3__113basic_istreamIcNS_11char_traitsIcEEE8readsomeEPcl;
    _ZNSt3__113basic_istreamIwNS_11char_traitsIwEEE3getEPwl;
    _ZNSt3__113basic_istreamIwNS_11char_traitsIwEEE3getEPwlw;
    _ZNSt3__113basic_istreamIwNS_11char_traitsIwEEE4readEPwl;
    _ZNSt3__113basic_istreamIwNS_11char_traitsIwEEE6ignoreElj;
    _ZNSt3__113basic_istreamIwNS_11char_traitsIwEEE7getlineEPwl;
    _ZNSt3__113basic_istreamIwNS_11char_traitsIwEEE7getlineEPwlw;
    _ZNSt3__113basic_istreamIwNS_11char_traitsIwEEE8readsomeEPwl;
    _ZNSt3__113basic_ostreamIcNS_11char_traitsIcEEE5writeEPKcl;
    _ZNSt3__113basic_ostreamIwNS_11char_traitsIwEEE5writeEPKwl;
    _ZNSt3__114codecvt_bynameIcc9mbstate_tEC1EPKcm;
    _ZNSt3__114codecvt_bynameIcc9mbstate_tEC1ERKNS_12basic_stringIcNS_11char_traitsIcEENS_9allocatorIcEEEEm;
    _ZNSt3__114codecvt_bynameIcc9mbstate_tEC2EPKcm;
    _ZNSt3__114codecvt_bynameIcc9mbstate_tEC2ERKNS_12basic_stringIcNS_11char_traitsIcEENS_9allocatorIcEEEEm;
    _ZNSt3__114codecvt_bynameIDic9mbstate_tEC1EPKcm;
    _ZNSt3__114codecvt_bynameIDic9mbstate_tEC1ERKNS_12basic_stringIcNS_11char_traitsIcEENS_9allocatorIcEEEEm;
    _ZNSt3__114codecvt_bynameIDic9mbstate_tEC2EPKcm;
    _ZNSt3__114codecvt_bynameIDic9mbstate_tEC2ERKNS_12basic_stringIcNS_11char_traitsIcEENS_9allocatorIcEEEEm;
    _ZNSt3__114codecvt_bynameIDsc9mbstate_tEC1EPKcm;
    _ZNSt3__114codecvt_bynameIDsc9mbstate_tEC1ERKNS_12basic_stringIcNS_11char_traitsIcEENS_9allocatorIcEEEEm;
    _ZNSt3__114codecvt_bynameIDsc9mbstate_tEC2EPKcm;
    _ZNSt3__114codecvt_bynameIDsc9mbstate_tEC2ERKNS_12basic_stringIcNS_11char_traitsIcEENS_9allocatorIcEEEEm;
    _ZNSt3__114codecvt_bynameIwc9mbstate_tEC1EPKcm;
    _ZNSt3__114codecvt_bynameIwc9mbstate_tEC1ERKNS_12basic_stringIcNS_11char_traitsIcEENS_9allocatorIcEEEEm;
    _ZNSt3__114codecvt_bynameIwc9mbstate_tEC2EPKcm;
    _ZNSt3__114codecvt_bynameIwc9mbstate_tEC2ERKNS_12basic_stringIcNS_11char_traitsIcEENS_9allocatorIcEEEEm;
    _ZNSt3__114collate_bynameIcEC1EPKcm;
    _ZNSt3__114collate_bynameIcEC1ERKNS_12basic_stringIcNS_11char_traitsIcEENS_9allocatorIcEEEEm;
    _ZNSt3__114collate_bynameIcEC2EPKcm;
    _ZNSt3__114collate_bynameIcEC2ERKNS_12basic_stringIcNS_11char_traitsIcEENS_9allocatorIcEEEEm;
    _ZNSt3__114collate_bynameIwEC1EPKcm;
    _ZNSt3__114collate_bynameIwEC1ERKNS_12basic_stringIcNS_11char_traitsIcEENS_9allocatorIcEEEEm;
    _ZNSt3__114collate_bynameIwEC2EPKcm;
    _ZNSt3__114collate_bynameIwEC2ERKNS_12basic_stringIcNS_11char_traitsIcEENS_9allocatorIcEEEEm;
    _ZNSt3__115basic_streambufIcNS_11char_traitsIcEEE5sgetnEPcl;
    _ZNSt3__115basic_streambufIcNS_11char_traitsIcEEE5sputnEPKcl;
    _ZNSt3__115basic_streambufIcNS_11char_traitsIcEEE6setbufEPcl;
    _ZNSt3__115basic_streambufIcNS_11char_traitsIcEEE6xsgetnEPcl;
    _ZNSt3__115basic_streambufIcNS_11char_traitsIcEEE6xsputnEPKcl;
    _ZNSt3__115basic_streambufIcNS_11char_traitsIcEEE9pubsetbufEPcl;
    _ZNSt3__115basic_streambufIwNS_11char_traitsIwEEE5sgetnEPwl;
    _ZNSt3__115basic_streambufIwNS_11char_traitsIwEEE5sputnEPKwl;
    _ZNSt3__115basic_streambufIwNS_11char_traitsIwEEE6setbufEPwl;
    _ZNSt3__115basic_streambufIwNS_11char_traitsIwEEE6xsgetnEPwl;
    _ZNSt3__115basic_streambufIwNS_11char_traitsIwEEE6xsputnEPKwl;
    _ZNSt3__115basic_streambufIwNS_11char_traitsIwEEE8overflowEj;
    _ZNSt3__115basic_streambufIwNS_11char_traitsIwEEE9pbackfailEj;
    _ZNSt3__115basic_streambufIwNS_11char_traitsIwEEE9pubsetbufEPwl;
    _ZNSt3__115messages_bynameIcEC1EPKcm;
    _ZNSt3__115messages_bynameIcEC1ERKNS_12basic_stringIcNS_11char_traitsIcEENS_9allocatorIcEEEEm;
    _ZNSt3__115messages_bynameIcEC2EPKcm;
    _ZNSt3__115messages_bynameIcEC2ERKNS_12basic_stringIcNS_11char_traitsIcEENS_9allocatorIcEEEEm;
    _ZNSt3__115messages_bynameIwEC1EPKcm;
    _ZNSt3__115messages_bynameIwEC1ERKNS_12basic_stringIcNS_11char_traitsIcEENS_9allocatorIcEEEEm;
    _ZNSt3__115messages_bynameIwEC2EPKcm;
    _ZNSt3__115messages_bynameIwEC2ERKNS_12basic_stringIcNS_11char_traitsIcEENS_9allocatorIcEEEEm;
    _ZNSt3__115numpunct_bynameIcEC1EPKcm;
    _ZNSt3__115numpunct_bynameIcEC1ERKNS_12basic_stringIcNS_11char_traitsIcEENS_9allocatorIcEEEEm;
    _ZNSt3__115numpunct_bynameIcEC2EPKcm;
    _ZNSt3__115numpunct_bynameIcEC2ERKNS_12basic_stringIcNS_11char_traitsIcEENS_9allocatorIcEEEEm;
    _ZNSt3__115numpunct_bynameIwEC1EPKcm;
    _ZNSt3__115numpunct_bynameIwEC1ERKNS_12basic_stringIcNS_11char_traitsIcEENS_9allocatorIcEEEEm;
    _ZNSt3__115numpunct_bynameIwEC2EPKcm;
    _ZNSt3__115numpunct_bynameIwEC2ERKNS_12basic_stringIcNS_11char_traitsIcEENS_9allocatorIcEEEEm;
    _ZNSt3__115time_get_bynameIcNS_19istreambuf_iteratorIcNS_11char_traitsIcEEEEEC1EPKcm;
    _ZNSt3__115time_get_bynameIcNS_19istreambuf_iteratorIcNS_11char_traitsIcEEEEEC1ERKNS_12basic_stringIcS3_NS_9allocatorIcEEEEm;
    _ZNSt3__115time_get_bynameIcNS_19istreambuf_iteratorIcNS_11char_traitsIcEEEEEC2EPKcm;
    _ZNSt3__115time_get_bynameIcNS_19istreambuf_iteratorIcNS_11char_traitsIcEEEEEC2ERKNS_12basic_stringIcS3_NS_9allocatorIcEEEEm;
    _ZNSt3__115time_get_bynameIwNS_19istreambuf_iteratorIwNS_11char_traitsIwEEEEEC1EPKcm;
    _ZNSt3__115time_get_bynameIwNS_19istreambuf_iteratorIwNS_11char_traitsIwEEEEEC1ERKNS_12basic_stringIcNS2_IcEENS_9allocatorIcEEEEm;
    _ZNSt3__115time_get_bynameIwNS_19istreambuf_iteratorIwNS_11char_traitsIwEEEEEC2EPKcm;
    _ZNSt3__115time_get_bynameIwNS_19istreambuf_iteratorIwNS_11char_traitsIwEEEEEC2ERKNS_12basic_stringIcNS2_IcEENS_9allocatorIcEEEEm;
    _ZNSt3__115time_put_bynameIcNS_19ostreambuf_iteratorIcNS_11char_traitsIcEEEEEC1EPKcm;
    _ZNSt3__115time_put_bynameIcNS_19ostreambuf_iteratorIcNS_11char_traitsIcEEEEEC1ERKNS_12basic_stringIcS3_NS_9allocatorIcEEEEm;
    _ZNSt3__115time_put_bynameIcNS_19ostreambuf_iteratorIcNS_11char_traitsIcEEEEEC2EPKcm;
    _ZNSt3__115time_put_bynameIcNS_19ostreambuf_iteratorIcNS_11char_traitsIcEEEEEC2ERKNS_12basic_stringIcS3_NS_9allocatorIcEEEEm;
    _ZNSt3__115time_put_bynameIwNS_19ostreambuf_iteratorIwNS_11char_traitsIwEEEEEC1EPKcm;
    _ZNSt3__115time_put_bynameIwNS_19ostreambuf_iteratorIwNS_11char_traitsIwEEEEEC1ERKNS_12basic_stringIcNS2_IcEENS_9allocatorIcEEEEm;
    _ZNSt3__115time_put_bynameIwNS_19ostreambuf_iteratorIwNS_11char_traitsIwEEEEEC2EPKcm;
    _ZNSt3__115time_put_bynameIwNS_19ostreambuf_iteratorIwNS_11char_traitsIwEEEEEC2ERKNS_12basic_stringIcNS2_IcEENS_9allocatorIcEEEEm;
    _ZNSt3__116__narrow_to_utf8ILm16EED0Ev;
    _ZNSt3__116__narrow_to_utf8ILm16EED1Ev;
    _ZNSt3__116__narrow_to_utf8ILm16EED2Ev;
    _ZNSt3__116__narrow_to_utf8ILm32EED0Ev;
    _ZNSt3__116__narrow_to_utf8ILm32EED1Ev;
    _ZNSt3__116__narrow_to_utf8ILm32EED2Ev;
    _ZNSt3__117moneypunct_bynameIcLb0EEC1EPKcm;
    _ZNSt3__117moneypunct_bynameIcLb0EEC1ERKNS_12basic_stringIcNS_11char_traitsIcEENS_9allocatorIcEEEEm;
    _ZNSt3__117moneypunct_bynameIcLb0EEC2EPKcm;
    _ZNSt3__117moneypunct_bynameIcLb0EEC2ERKNS_12basic_stringIcNS_11char_traitsIcEENS_9allocatorIcEEEEm;
    _ZNSt3__117moneypunct_bynameIcLb1EEC1EPKcm;
    _ZNSt3__117moneypunct_bynameIcLb1EEC1ERKNS_12basic_stringIcNS_11char_traitsIcEENS_9allocatorIcEEEEm;
    _ZNSt3__117moneypunct_bynameIcLb1EEC2EPKcm;
    _ZNSt3__117moneypunct_bynameIcLb1EEC2ERKNS_12basic_stringIcNS_11char_traitsIcEENS_9allocatorIcEEEEm;
    _ZNSt3__117moneypunct_bynameIwLb0EEC1EPKcm;
    _ZNSt3__117moneypunct_bynameIwLb0EEC1ERKNS_12basic_stringIcNS_11char_traitsIcEENS_9allocatorIcEEEEm;
    _ZNSt3__117moneypunct_bynameIwLb0EEC2EPKcm;
    _ZNSt3__117moneypunct_bynameIwLb0EEC2ERKNS_12basic_stringIcNS_11char_traitsIcEENS_9allocatorIcEEEEm;
    _ZNSt3__117moneypunct_bynameIwLb1EEC1EPKcm;
    _ZNSt3__117moneypunct_bynameIwLb1EEC1ERKNS_12basic_stringIcNS_11char_traitsIcEENS_9allocatorIcEEEEm;
    _ZNSt3__117moneypunct_bynameIwLb1EEC2EPKcm;
    _ZNSt3__117moneypunct_bynameIwLb1EEC2ERKNS_12basic_stringIcNS_11char_traitsIcEENS_9allocatorIcEEEEm;
    _ZNSt3__117__widen_from_utf8ILm16EED0Ev;
    _ZNSt3__117__widen_from_utf8ILm16EED1Ev;
    _ZNSt3__117__widen_from_utf8ILm16EED2Ev;
    _ZNSt3__117__widen_from_utf8ILm32EED0Ev;
    _ZNSt3__117__widen_from_utf8ILm32EED1Ev;
    _ZNSt3__117__widen_from_utf8ILm32EED2Ev;
    _ZNSt3__118condition_variable15__do_timed_waitERNS_11unique_lockINS_5mutexEEENS_6chrono10time_pointINS5_12system_clockENS5_8durationIxNS_5ratioILl1ELl1000000000EEEEEEE;
    _ZNSt3__119declare_no_pointersEPcm;
    _ZNSt3__121undeclare_no_pointersEPcm;
    _ZNSt3__14stodERKNS_12basic_stringIcNS_11char_traitsIcEENS_9allocatorIcEEEEPm;
    _ZNSt3__14stodERKNS_12basic_stringIwNS_11char_traitsIwEENS_9allocatorIwEEEEPm;
    _ZNSt3__14stofERKNS_12basic_stringIcNS_11char_traitsIcEENS_9allocatorIcEEEEPm;
    _ZNSt3__14stofERKNS_12basic_stringIwNS_11char_traitsIwEENS_9allocatorIwEEEEPm;
    _ZNSt3__14stoiERKNS_12basic_stringIcNS_11char_traitsIcEENS_9allocatorIcEEEEPmi;
    _ZNSt3__14stoiERKNS_12basic_stringIwNS_11char_traitsIwEENS_9allocatorIwEEEEPmi;
    _ZNSt3__14stolERKNS_12basic_stringIcNS_11char_traitsIcEENS_9allocatorIcEEEEPmi;
    _ZNSt3__14stolERKNS_12basic_stringIwNS_11char_traitsIwEENS_9allocatorIwEEEEPmi;
    _ZNSt3__15alignEmmRPvRm;
    _ZNSt3__15ctypeIcEC1EPKtbm;
    _ZNSt3__15ctypeIcEC2EPKtbm;
    _ZNSt3__15stoldERKNS_12basic_stringIcNS_11char_traitsIcEENS_9allocatorIcEEEEPm;
    _ZNSt3__15stoldERKNS_12basic_stringIwNS_11char_traitsIwEENS_9allocatorIwEEEEPm;
    _ZNSt3__15stollERKNS_12basic_stringIcNS_11char_traitsIcEENS_9allocatorIcEEEEPmi;
    _ZNSt3__15stollERKNS_12basic_stringIwNS_11char_traitsIwEENS_9allocatorIwEEEEPmi;
    _ZNSt3__15stoulERKNS_12basic_stringIcNS_11char_traitsIcEENS_9allocatorIcEEEEPmi;
    _ZNSt3__15stoulERKNS_12basic_stringIwNS_11char_traitsIwEENS_9allocatorIwEEEEPmi;
    _ZNSt3__16chrono12system_clock9to_time_tERKNS0_10time_pointIS1_NS0_8durationIxNS_5ratioILl1ELl1000000EEEEEEE;
    _ZNSt3__16gslice6__initEm;
    _ZNSt3__16locale5__impC1Em;
    _ZNSt3__16locale5__impC1ERKNS_12basic_stringIcNS_11char_traitsIcEENS_9allocatorIcEEEEm;
    _ZNSt3__16locale5__impC2Em;
    _ZNSt3__16locale5__impC2ERKNS_12basic_stringIcNS_11char_traitsIcEENS_9allocatorIcEEEEm;
    _ZNSt3__16stoullERKNS_12basic_stringIcNS_11char_traitsIcEENS_9allocatorIcEEEEPmi;
    _ZNSt3__16stoullERKNS_12basic_stringIwNS_11char_traitsIwEENS_9allocatorIwEEEEPmi;
    _ZNSt3__16vectorIPNS_6locale5facetENS_15__sso_allocatorIS3_Lm28EEEE6assignIPS3_EENS_9enable_ifIXaasr21__is_forward_iteratorIT_EE5valuesr16is_constructibleIS3_NS_15iterator_traitsISA_E9referenceEEE5valueEvE4typeESA_SA_;
    _ZNSt3__16vectorIPNS_6locale5facetENS_15__sso_allocatorIS3_Lm28EEEE8__appendEm;
    _ZNSt3__16vectorIPNS_6locale5facetENS_15__sso_allocatorIS3_Lm28EEEEC2Em;
    _ZNSt3__17codecvtIwc9mbstate_tEC1Em;
    _ZNSt3__17codecvtIwc9mbstate_tEC1EPKcm;
    _ZNSt3__17codecvtIwc9mbstate_tEC2Em;
    _ZNSt3__17codecvtIwc9mbstate_tEC2EPKcm;
    _ZNSt3__17collateIcEC1Em;
    _ZNSt3__17collateIcEC2Em;
    _ZNSt3__17collateIwEC1Em;
    _ZNSt3__17collateIwEC2Em;
    _ZNSt3__17num_getIcNS_19istreambuf_iteratorIcNS_11char_traitsIcEEEEEC1Em;
    _ZNSt3__17num_getIcNS_19istreambuf_iteratorIcNS_11char_traitsIcEEEEEC2Em;
    _ZNSt3__17num_getIwNS_19istreambuf_iteratorIwNS_11char_traitsIwEEEEEC1Em;
    _ZNSt3__17num_getIwNS_19istreambuf_iteratorIwNS_11char_traitsIwEEEEEC2Em;
    _ZNSt3__17num_putIcNS_19ostreambuf_iteratorIcNS_11char_traitsIcEEEEEC1Em;
    _ZNSt3__17num_putIcNS_19ostreambuf_iteratorIcNS_11char_traitsIcEEEEEC2Em;
    _ZNSt3__17num_putIwNS_19ostreambuf_iteratorIwNS_11char_traitsIwEEEEEC1Em;
    _ZNSt3__17num_putIwNS_19ostreambuf_iteratorIwNS_11char_traitsIwEEEEEC2Em;
    _ZNSt3__18messagesIcEC1Em;
    _ZNSt3__18messagesIcEC2Em;
    _ZNSt3__18messagesIwEC1Em;
    _ZNSt3__18messagesIwEC2Em;
    _ZNSt3__18numpunctIcEC1Em;
    _ZNSt3__18numpunctIcEC2Em;
    _ZNSt3__18numpunctIwEC1Em;
    _ZNSt3__18numpunctIwEC2Em;
    _ZNSt3__18time_getIcNS_19istreambuf_iteratorIcNS_11char_traitsIcEEEEEC1Em;
    _ZNSt3__18time_getIcNS_19istreambuf_iteratorIcNS_11char_traitsIcEEEEEC2Em;
    _ZNSt3__18time_getIwNS_19istreambuf_iteratorIwNS_11char_traitsIwEEEEEC1Em;
    _ZNSt3__18time_getIwNS_19istreambuf_iteratorIwNS_11char_traitsIwEEEEEC2Em;
    _ZNSt3__18time_putIcNS_19ostreambuf_iteratorIcNS_11char_traitsIcEEEEEC1Em;
    _ZNSt3__18time_putIcNS_19ostreambuf_iteratorIcNS_11char_traitsIcEEEEEC1EPKcm;
    _ZNSt3__18time_putIcNS_19ostreambuf_iteratorIcNS_11char_traitsIcEEEEEC1ERKNS_12basic_stringIcS3_NS_9allocatorIcEEEEm;
    _ZNSt3__18time_putIcNS_19ostreambuf_iteratorIcNS_11char_traitsIcEEEEEC2Em;
    _ZNSt3__18time_putIcNS_19ostreambuf_iteratorIcNS_11char_traitsIcEEEEEC2EPKcm;
    _ZNSt3__18time_putIcNS_19ostreambuf_iteratorIcNS_11char_traitsIcEEEEEC2ERKNS_12basic_stringIcS3_NS_9allocatorIcEEEEm;
    _ZNSt3__18time_putIwNS_19ostreambuf_iteratorIwNS_11char_traitsIwEEEEEC1Em;
    _ZNSt3__18time_putIwNS_19ostreambuf_iteratorIwNS_11char_traitsIwEEEEEC1EPKcm;
    _ZNSt3__18time_putIwNS_19ostreambuf_iteratorIwNS_11char_traitsIwEEEEEC1ERKNS_12basic_stringIcNS2_IcEENS_9allocatorIcEEEEm;
    _ZNSt3__18time_putIwNS_19ostreambuf_iteratorIwNS_11char_traitsIwEEEEEC2Em;
    _ZNSt3__18time_putIwNS_19ostreambuf_iteratorIwNS_11char_traitsIwEEEEEC2EPKcm;
    _ZNSt3__18time_putIwNS_19ostreambuf_iteratorIwNS_11char_traitsIwEEEEEC2ERKNS_12basic_stringIcNS2_IcEENS_9allocatorIcEEEEm;
    _ZNSt3__18valarrayImE6resizeEmm;
    _ZNSt3__18valarrayImEC1Em;
    _ZNSt3__18valarrayImEC2Em;
    _ZNSt3__18valarrayImED1Ev;
    _ZNSt3__18valarrayImED2Ev;
    _ZNSt3__19money_getIcNS_19istreambuf_iteratorIcNS_11char_traitsIcEEEEEC1Em;
    _ZNSt3__19money_getIcNS_19istreambuf_iteratorIcNS_11char_traitsIcEEEEEC2Em;
    _ZNSt3__19money_getIwNS_19istreambuf_iteratorIwNS_11char_traitsIwEEEEEC1Em;
    _ZNSt3__19money_getIwNS_19istreambuf_iteratorIwNS_11char_traitsIwEEEEEC2Em;
    _ZNSt3__19money_putIcNS_19ostreambuf_iteratorIcNS_11char_traitsIcEEEEEC1Em;
    _ZNSt3__19money_putIcNS_19ostreambuf_iteratorIcNS_11char_traitsIcEEEEEC2Em;
    _ZNSt3__19money_putIwNS_19ostreambuf_iteratorIwNS_11char_traitsIwEEEEEC1Em;
    _ZNSt3__19money_putIwNS_19ostreambuf_iteratorIwNS_11char_traitsIwEEEEEC2Em;
    _ZNSt3__1L12mut_back_impE;
    _ZNSt3__1L19utf8_to_ucs4_lengthEPKhS1_mmNS_12codecvt_modeE;
    _ZNSt3__1L20utf8_to_utf16_lengthEPKhS1_mmNS_12codecvt_modeE;
    _ZNSt3__1L22utf16be_to_ucs4_lengthEPKhS1_mmNS_12codecvt_modeE;
    _ZNSt3__1L22utf16le_to_ucs4_lengthEPKhS1_mmNS_12codecvt_modeE;
    _ZNSt3__1L2cvE;
    _ZNSt3__1L3mutE;
    _ZNSt3__1L8__rs_mutE;
    _Znwm;
    _ZnwmRKSt9nothrow_t;
    _ZTCNSt3__114basic_iostreamIcNS_11char_traitsIcEEEE16_NS_13basic_ostreamIcS2_EE;
    _ZTCNSt3__19strstreamE16_NS_13basic_ostreamIcNS_11char_traitsIcEEEE;
    _ZThn16_NKSt3__115time_get_bynameIcNS_19istreambuf_iteratorIcNS_11char_traitsIcEEEEE3__cEv;
    _ZThn16_NKSt3__115time_get_bynameIcNS_19istreambuf_iteratorIcNS_11char_traitsIcEEEEE3__rEv;
    _ZThn16_NKSt3__115time_get_bynameIcNS_19istreambuf_iteratorIcNS_11char_traitsIcEEEEE3__xEv;
    _ZThn16_NKSt3__115time_get_bynameIcNS_19istreambuf_iteratorIcNS_11char_traitsIcEEEEE3__XEv;
    _ZThn16_NKSt3__115time_get_bynameIcNS_19istreambuf_iteratorIcNS_11char_traitsIcEEEEE7__am_pmEv;
    _ZThn16_NKSt3__115time_get_bynameIcNS_19istreambuf_iteratorIcNS_11char_traitsIcEEEEE7__weeksEv;
    _ZThn16_NKSt3__115time_get_bynameIcNS_19istreambuf_iteratorIcNS_11char_traitsIcEEEEE8__monthsEv;
    _ZThn16_NKSt3__115time_get_bynameIwNS_19istreambuf_iteratorIwNS_11char_traitsIwEEEEE3__cEv;
    _ZThn16_NKSt3__115time_get_bynameIwNS_19istreambuf_iteratorIwNS_11char_traitsIwEEEEE3__rEv;
    _ZThn16_NKSt3__115time_get_bynameIwNS_19istreambuf_iteratorIwNS_11char_traitsIwEEEEE3__xEv;
    _ZThn16_NKSt3__115time_get_bynameIwNS_19istreambuf_iteratorIwNS_11char_traitsIwEEEEE3__XEv;
    _ZThn16_NKSt3__115time_get_bynameIwNS_19istreambuf_iteratorIwNS_11char_traitsIwEEEEE7__am_pmEv;
    _ZThn16_NKSt3__115time_get_bynameIwNS_19istreambuf_iteratorIwNS_11char_traitsIwEEEEE7__weeksEv;
    _ZThn16_NKSt3__115time_get_bynameIwNS_19istreambuf_iteratorIwNS_11char_traitsIwEEEEE8__monthsEv;
    _ZThn16_NSt3__114basic_iostreamIcNS_11char_traitsIcEEED0Ev;
    _ZThn16_NSt3__114basic_iostreamIcNS_11char_traitsIcEEED1Ev;
    _ZThn16_NSt3__19strstreamD0Ev;
    _ZThn16_NSt3__19strstreamD1Ev;
    _ZTINSt3__116__narrow_to_utf8ILm16EEE;
    _ZTINSt3__116__narrow_to_utf8ILm32EEE;
    _ZTINSt3__117__widen_from_utf8ILm16EEE;
    _ZTINSt3__117__widen_from_utf8ILm32EEE;
    _ZTSNSt3__116__narrow_to_utf8ILm16EEE;
    _ZTSNSt3__116__narrow_to_utf8ILm32EEE;
    _ZTSNSt3__117__widen_from_utf8ILm16EEE;
    _ZTSNSt3__117__widen_from_utf8ILm32EEE;
    _ZTv0_n24_NSt3__110istrstreamD0Ev;
    _ZTv0_n24_NSt3__110istrstreamD1Ev;
    _ZTv0_n24_NSt3__110ostrstreamD0Ev;
    _ZTv0_n24_NSt3__110ostrstreamD1Ev;
    _ZTv0_n24_NSt3__113basic_istreamIcNS_11char_traitsIcEEED0Ev;
    _ZTv0_n24_NSt3__113basic_istreamIcNS_11char_traitsIcEEED1Ev;
    _ZTv0_n24_NSt3__113basic_istreamIwNS_11char_traitsIwEEED0Ev;
    _ZTv0_n24_NSt3__113basic_istreamIwNS_11char_traitsIwEEED1Ev;
    _ZTv0_n24_NSt3__113basic_ostreamIcNS_11char_traitsIcEEED0Ev;
    _ZTv0_n24_NSt3__113basic_ostreamIcNS_11char_traitsIcEEED1Ev;
    _ZTv0_n24_NSt3__113basic_ostreamIwNS_11char_traitsIwEEED0Ev;
    _ZTv0_n24_NSt3__113basic_ostreamIwNS_11char_traitsIwEEED1Ev;
    _ZTv0_n24_NSt3__114basic_iostreamIcNS_11char_traitsIcEEED0Ev;
    _ZTv0_n24_NSt3__114basic_iostreamIcNS_11char_traitsIcEEED1Ev;
    _ZTv0_n24_NSt3__19strstreamD0Ev;
    _ZTv0_n24_NSt3__19strstreamD1Ev;
    _ZTVNSt3__116__narrow_to_utf8ILm16EEE;
    _ZTVNSt3__116__narrow_to_utf8ILm32EEE;
    _ZTVNSt3__117__widen_from_utf8ILm16EEE;
    _ZTVNSt3__117__widen_from_utf8ILm32EEE;
    _ZZ12logUnwindingE3log;
    _ZZ12logUnwindingE7checked;
    _ZZ7logAPIsE3log;
    _ZZ7logAPIsE7checked;
    _ZZNSt3__112__get_sp_mutEPKvE4muts;
    _ZZNSt3__112__rs_defaultclEvE6__rs_g;
    _ZZNSt3__115future_categoryEvE3__f;
    _ZZNSt3__115system_categoryEvE1s;
    _ZZNSt3__116generic_categoryEvE1s;
    _ZZNSt3__117iostream_categoryEvE1s;
    _ZZNSt3__119__thread_local_dataEvE3__p;
    _ZZNSt3__16__clocEvE6result;
    _ZZNSt3__16locale7classicEvE1c;
    _ZZNSt3__16locale8__globalEvE1g;
    _ZZNSt3__18__get_dbEvE2db;
    _ZZNSt3__18ios_base5iwordEiE5error;
    _ZZNSt3__18ios_base5pwordEiE5error;
    _ZZNSt3__1L10init_am_pmEvE5am_pm;
    _ZZNSt3__1L10init_weeksEvE5weeks;
    _ZZNSt3__1L11init_monthsEvE6months;
    _ZZNSt3__1L11init_wam_pmEvE5am_pm;
    _ZZNSt3__1L11init_wweeksEvE5weeks;
    _ZZNSt3__1L12init_wmonthsEvE6months;

  local: *;
};
